(dp0
S'augustine'
p1
F5.241747015059643
sS'saver'
p2
F5.241747015059643
sS'desirable'
p3
F5.241747015059643
sS'yellow'
p4
F5.241747015059643
sS'four'
p5
F4.548599834499697
sS'facilities'
p6
F5.241747015059643
sS'sleep'
p7
F2.7568403652716422
sS'railing'
p8
F5.241747015059643
sS'saved'
p9
F4.143134726391533
sS'poorly'
p10
F4.548599834499697
sS'patches'
p11
F5.241747015059643
sS'eligible'
p12
F5.241747015059643
sS'remodeled'
p13
F5.241747015059643
sS'bike'
p14
F5.241747015059643
sS'sorry'
p15
F5.241747015059643
sS'restock'
p16
F5.241747015059643
sS'worth'
p17
F3.295836866004329
sS'updated'
p18
F3.855452653939752
sS'fireplaces'
p19
F5.241747015059643
sS'connects'
p20
F5.241747015059643
sS'every'
p21
F3.044522437723423
sS'updates'
p22
F5.241747015059643
sS'month'
p23
F4.548599834499697
sS'bringing'
p24
F5.241747015059643
sS'tickets'
p25
F5.241747015059643
sS'school'
p26
F4.143134726391533
sS'basics'
p27
F5.241747015059643
sS'skills'
p28
F4.548599834499697
sS'clientele'
p29
F5.241747015059643
sS'convenience'
p30
F4.548599834499697
sS'red'
p31
F3.632309102625542
sS'clothes'
p32
F4.548599834499697
sS'enjoy'
p33
F2.843851742261272
sS'jamaica'
p34
F5.241747015059643
sS'bill'
p35
F4.548599834499697
sS'tired'
p36
F3.632309102625542
sS'construed'
p37
F5.241747015059643
sS'phones'
p38
F5.241747015059643
sS'ornate'
p39
F5.241747015059643
sS'bacon'
p40
F4.143134726391533
sS'japanese'
p41
F5.241747015059643
sS'horn'
p42
F5.241747015059643
sS'elegant'
p43
F3.632309102625542
sS'likely'
p44
F4.548599834499697
sS'street'
p45
F2.7568403652716422
sS'kentucky'
p46
F5.241747015059643
sS'oread'
p47
F5.241747015059643
sS'snuggled'
p48
F5.241747015059643
sS'machines'
p49
F5.241747015059643
sS'even'
p50
F1.4350845252893227
sS'wreck'
p51
F5.241747015059643
sS'hate'
p52
F5.241747015059643
sS'beaten'
p53
F5.241747015059643
sS'lights'
p54
F3.632309102625542
sS'haze'
p55
F5.241747015059643
sS'supplies'
p56
F5.241747015059643
sS'carpet'
p57
F3.044522437723423
sS'ever'
p58
F1.9459101490553132
sS'disney'
p59
F4.548599834499697
sS'told'
p60
F2.9391619220655967
sS'pancakes'
p61
F5.241747015059643
sS'interstate'
p62
F4.548599834499697
sS'never'
p63
F1.9836504770381602
sS'hundreds'
p64
F5.241747015059643
sS'reported'
p65
F5.241747015059643
sS'bookcase'
p66
F5.241747015059643
sS'path'
p67
F4.548599834499697
sS'promptly'
p68
F4.143134726391533
sS'kids'
p69
F2.7568403652716422
sS'daughter'
p70
F3.295836866004329
sS'luggage'
p71
F4.143134726391533
sS'auction'
p72
F5.241747015059643
sS'items'
p73
F4.548599834499697
sS'employees'
p74
F5.241747015059643
sS'girlfrind'
p75
F5.241747015059643
sS'credit'
p76
F4.548599834499697
sS'smoke'
p77
F3.1623054733798064
sS'military'
p78
F5.241747015059643
sS'suitable'
p79
F5.241747015059643
sS'changes'
p80
F4.548599834499697
sS'golden'
p81
F5.241747015059643
sS'fantastic'
p82
F3.449987545831587
sS'secure'
p83
F4.548599834499697
sS'spooky'
p84
F5.241747015059643
sS'highly'
p85
F4.548599834499697
sS'brought'
p86
F4.143134726391533
sS'lavatory'
p87
F5.241747015059643
sS'guests'
p88
F4.143134726391533
sS'total'
p89
F4.143134726391533
sS'landscape'
p90
F5.241747015059643
sS'spoke'
p91
F4.548599834499697
sS'would'
p92
F0.965080896043587
sS'army'
p93
F4.548599834499697
sS'negative'
p94
F5.241747015059643
sS'leaks'
p95
F5.241747015059643
sS'music'
p96
F4.548599834499697
sS'calm'
p97
F4.143134726391533
sS'passport'
p98
F5.241747015059643
sS'recommend'
p99
F1.9836504770381602
sS'leaky'
p100
F5.241747015059643
sS'beddings'
p101
F5.241747015059643
sS'tell'
p102
F3.449987545831587
sS'separated'
p103
F5.241747015059643
sS'females'
p104
F5.241747015059643
sS'relax'
p105
F3.044522437723423
sS'warp'
p106
F5.241747015059643
sS'phone'
p107
F3.295836866004329
sS'warm'
p108
F4.143134726391533
sS'arms'
p109
F5.241747015059643
sS'excellent'
p110
F3.295836866004329
sS'hold'
p111
F5.241747015059643
sS'outdated'
p112
F3.855452653939752
sS'blocking'
p113
F5.241747015059643
sS'authentically'
p114
F5.241747015059643
sS'must'
p115
F3.1623054733798064
sS'abundance'
p116
F5.241747015059643
sS'tastefully'
p117
F5.241747015059643
sS'word'
p118
F5.241747015059643
sS'room'
p119
F0.4710623905939776
sS'cheapest'
p120
F5.241747015059643
sS'candelabra'
p121
F5.241747015059643
sS'famed'
p122
F5.241747015059643
sS'mn'
p123
F5.241747015059643
sS'roof'
p124
F4.143134726391533
sS'movies'
p125
F4.548599834499697
sS'era'
p126
F5.241747015059643
sS'mechanic'
p127
F5.241747015059643
sS'plunger'
p128
F5.241747015059643
sS'example'
p129
F5.241747015059643
sS'omelets'
p130
F5.241747015059643
sS'indicated'
p131
F5.241747015059643
sS'hyatt'
p132
F4.143134726391533
sS'organized'
p133
F4.548599834499697
sS'bellman'
p134
F5.241747015059643
sS'foods'
p135
F5.241747015059643
sS'overheard'
p136
F5.241747015059643
sS'want'
p137
F3.295836866004329
sS'keep'
p138
F3.855452653939752
sS'absolute'
p139
F4.143134726391533
sS'doorman'
p140
F5.241747015059643
sS'end'
p141
F4.548599834499697
sS'dryer'
p142
F4.143134726391533
sS'scolding'
p143
F5.241747015059643
sS'provide'
p144
F4.548599834499697
sS'travel'
p145
F3.1623054733798064
sS'chcoclate'
p146
F5.241747015059643
sS'feature'
p147
F4.548599834499697
sS'revisit'
p148
F5.241747015059643
sS'hot'
p149
F2.6026896854443837
sS'adjacent'
p150
F5.241747015059643
sS'boats'
p151
F5.241747015059643
sS'gate'
p152
F4.548599834499697
sS'beach'
p153
F2.0228711901914416
sS'charging'
p154
F5.241747015059643
sS'pizza'
p155
F4.548599834499697
sS'badly'
p156
F4.548599834499697
sS'description'
p157
F5.241747015059643
sS'beauty'
p158
F5.241747015059643
sS'cuisine'
p159
F5.241747015059643
sS'mess'
p160
F4.548599834499697
sS'earlier'
p161
F4.143134726391533
sS'lengthy'
p162
F5.241747015059643
sS'customs'
p163
F5.241747015059643
sS'wrong'
p164
F3.044522437723423
sS'lay'
p165
F4.548599834499697
sS'las'
p166
F3.449987545831587
sS'purchase'
p167
F4.548599834499697
sS'attempt'
p168
F5.241747015059643
sS'third'
p169
F3.855452653939752
sS'pullout'
p170
F5.241747015059643
sS'cigarettes'
p171
F4.548599834499697
sS'frequent'
p172
F4.143134726391533
sS'enter'
p173
F4.143134726391533
sS'worst'
p174
F2.297308035893202
sS'order'
p175
F3.1623054733798064
sS'office'
p176
F3.449987545831587
sS'deck'
p177
F4.548599834499697
sS'welcomed'
p178
F5.241747015059643
sS'walgreens'
p179
F5.241747015059643
sS'fall'
p180
F4.548599834499697
sS'satisfied'
p181
F4.548599834499697
sS'ramadas'
p182
F5.241747015059643
sS'jacuzzi'
p183
F3.855452653939752
sS'modesto'
p184
F5.241747015059643
sS'jaccuzi'
p185
F5.241747015059643
sS'crumbs'
p186
F5.241747015059643
sS'responsive'
p187
F5.241747015059643
sS'japan'
p188
F4.548599834499697
sS'wrought'
p189
F5.241747015059643
sS'fit'
p190
F4.548599834499697
sS'surpise'
p191
F5.241747015059643
sS'highlights'
p192
F5.241747015059643
sS'fix'
p193
F4.143134726391533
sS'expectations'
p194
F4.548599834499697
sS'denver'
p195
F5.241747015059643
sS'better'
p196
F2.533696813957432
sS'condition'
p197
F4.548599834499697
sS'glanced'
p198
F5.241747015059643
sS'weeks'
p199
F5.241747015059643
sS'eventually'
p200
F5.241747015059643
sS'coffee'
p201
F2.843851742261272
sS'tourist'
p202
F4.548599834499697
sS'combination'
p203
F5.241747015059643
sS'workout'
p204
F5.241747015059643
sS'safe'
p205
F3.449987545831587
sS'disturb'
p206
F5.241747015059643
sS'break'
p207
F4.143134726391533
sS'awfully'
p208
F5.241747015059643
sS'astor'
p209
F5.241747015059643
sS'meat'
p210
F5.241747015059643
sS'notified'
p211
F4.548599834499697
sS'reasonably'
p212
F5.241747015059643
sS'rocks'
p213
F5.241747015059643
sS'ventilation'
p214
F4.548599834499697
sS'spotless'
p215
F5.241747015059643
sS'mead'
p216
F5.241747015059643
sS'reasonable'
p217
F3.632309102625542
sS'fitness'
p218
F5.241747015059643
sS'went'
p219
F2.2460147415056513
sS'side'
p220
F3.632309102625542
sS'mean'
p221
F4.548599834499697
sS'whim'
p222
F5.241747015059643
sS'concord'
p223
F5.241747015059643
sS'bowls'
p224
F5.241747015059643
sS'fairmont'
p225
F5.241747015059643
sS'strips'
p226
F5.241747015059643
sS'lamanche'
p227
F5.241747015059643
sS'dawn'
p228
F5.241747015059643
sS'ring'
p229
F5.241747015059643
sS'driving'
p230
F4.143134726391533
sS'xv'
p231
F5.241747015059643
sS'motel'
p232
F2.4085336710034264
sS'washed'
p233
F5.241747015059643
sS'benning'
p234
F5.241747015059643
sS'content'
p235
F5.241747015059643
sS're'
p236
F5.241747015059643
sS'laid'
p237
F4.548599834499697
sS'nite'
p238
F5.241747015059643
sS'heavenly'
p239
F5.241747015059643
sS'surprise'
p240
F4.548599834499697
sS'newly'
p241
F5.241747015059643
sS'taos'
p242
F5.241747015059643
sS'turning'
p243
F5.241747015059643
sS'assured'
p244
F5.241747015059643
sS'given'
p245
F3.632309102625542
sS'free'
p246
F2.1972245773362196
sS'standard'
p247
F5.241747015059643
sS'violation'
p248
F5.241747015059643
sS'sheet'
p249
F5.241747015059643
sS'greeted'
p250
F3.449987545831587
sS'ate'
p251
F4.143134726391533
sS'created'
p252
F4.548599834499697
sS'inexpensive'
p253
F4.548599834499697
sS'days'
p254
F2.7568403652716422
sS'creates'
p255
F5.241747015059643
sS'festival'
p256
F4.548599834499697
sS'shipped'
p257
F5.241747015059643
sS'walmart'
p258
F5.241747015059643
sS'soda'
p259
F5.241747015059643
sS'reserving'
p260
F5.241747015059643
sS'arrived'
p261
F2.469158292819861
sS'loud'
p262
F3.1623054733798064
sS'cleaning'
p263
F3.855452653939752
sS'rang'
p264
F5.241747015059643
sS'already'
p265
F3.855452653939752
sS'daunting'
p266
F5.241747015059643
sS'features'
p267
F5.241747015059643
sS'attractions'
p268
F3.855452653939752
sS'notch'
p269
F5.241747015059643
sS'featured'
p270
F4.143134726391533
sS'floors'
p271
F3.449987545831587
sS'delicious'
p272
F3.295836866004329
sS'comforter'
p273
F5.241747015059643
sS'neighborhood'
p274
F5.241747015059643
sS'thick'
p275
F5.241747015059643
sS'electronic'
p276
F5.241747015059643
sS'basketball'
p277
F5.241747015059643
sS'aire'
p278
F5.241747015059643
sS'service'
p279
F1.6041608553332567
sS'similarly'
p280
F5.241747015059643
sS'fled'
p281
F5.241747015059643
sS'venodors'
p282
F5.241747015059643
sS'top'
p283
F4.143134726391533
sS'girls'
p284
F5.241747015059643
sS'elevator'
p285
F3.632309102625542
sS'plentiful'
p286
F5.241747015059643
sS'needed'
p287
F3.295836866004329
sS'rates'
p288
F3.855452653939752
sS'wildly'
p289
F5.241747015059643
sS'ordered'
p290
F3.295836866004329
sS'legs'
p291
F5.241747015059643
sS'quinta'
p292
F4.143134726391533
sS'dogs'
p293
F3.855452653939752
sS'curtains'
p294
F5.241747015059643
sS'ceiling'
p295
F3.855452653939752
sS'paltry'
p296
F5.241747015059643
sS'gym'
p297
F4.548599834499697
sS'leaking'
p298
F5.241747015059643
sS'took'
p299
F2.297308035893202
sS'rejected'
p300
F5.241747015059643
sS'direct'
p301
F5.241747015059643
sS'western'
p302
F5.241747015059643
sS'cereal'
p303
F3.855452653939752
sS'wasted'
p304
F5.241747015059643
sS'brushed'
p305
F4.548599834499697
sS'positively'
p306
F5.241747015059643
sS'distance'
p307
F2.843851742261272
sS'showed'
p308
F5.241747015059643
sS'surrounding'
p309
F4.548599834499697
sS'tree'
p310
F5.241747015059643
sS'second'
p311
F3.855452653939752
sS'shower'
p312
F2.7568403652716422
sS'matter'
p313
F3.855452653939752
sS'fabulous'
p314
F3.855452653939752
sS'friend'
p315
F3.632309102625542
sS'iron'
p316
F4.548599834499697
sS'spoiled'
p317
F4.548599834499697
sS'shampoos'
p318
F5.241747015059643
sS'feeling'
p319
F4.548599834499697
sS'mini'
p320
F3.855452653939752
sS'mermaid'
p321
F5.241747015059643
sS'sorrento'
p322
F5.241747015059643
sS'palace'
p323
F5.241747015059643
sS'ran'
p324
F4.548599834499697
sS'boston'
p325
F5.241747015059643
sS'modern'
p326
F3.449987545831587
sS'mind'
p327
F4.143134726391533
sS'mine'
p328
F4.548599834499697
sS'spent'
p329
F3.632309102625542
sS'talking'
p330
F4.143134726391533
sS'seen'
p331
F3.855452653939752
sS'seem'
p332
F4.548599834499697
sS'urinate'
p333
F5.241747015059643
sS'seminar'
p334
F5.241747015059643
sS'forced'
p335
F5.241747015059643
sS'quieter'
p336
F5.241747015059643
sS'bedspread'
p337
F5.241747015059643
sS'convenient'
p338
F3.044522437723423
sS'snow'
p339
F4.548599834499697
sS'elegance'
p340
F5.241747015059643
sS'bengal'
p341
F5.241747015059643
sS'oriented'
p342
F5.241747015059643
sS'recommended'
p343
F4.548599834499697
sS'luxury'
p344
F3.632309102625542
sS'doors'
p345
F5.241747015059643
sS'gravy'
p346
F5.241747015059643
sS'though'
p347
F3.044522437723423
sS'thrilled'
p348
F5.241747015059643
sS'victoria'
p349
F5.241747015059643
sS'extending'
p350
F5.241747015059643
sS'regular'
p351
F4.548599834499697
sS'plenty'
p352
F3.855452653939752
sS'marie'
p353
F5.241747015059643
sS'inconsistency'
p354
F5.241747015059643
sS'sub'
p355
F5.241747015059643
sS'bedding'
p356
F3.632309102625542
sS'treats'
p357
F5.241747015059643
sS'grove'
p358
F5.241747015059643
sS'dog'
p359
F4.143134726391533
sS'freeway'
p360
F5.241747015059643
sS'definitely'
p361
F2.3513752571634776
sS'overnight'
p362
F4.548599834499697
sS'entertaining'
p363
F5.241747015059643
sS'mailing'
p364
F5.241747015059643
sS'responded'
p365
F5.241747015059643
sS'came'
p366
F2.843851742261272
sS'reserve'
p367
F5.241747015059643
sS'renting'
p368
F5.241747015059643
sS'priciest'
p369
F5.241747015059643
sS'contacted'
p370
F4.548599834499697
sS'insects'
p371
F4.143134726391533
sS'queen'
p372
F4.143134726391533
sS'earth'
p373
F4.548599834499697
sS'nevada'
p374
F4.548599834499697
sS'enjoyed'
p375
F2.9391619220655967
sS'toast'
p376
F5.241747015059643
sS'orleans'
p377
F3.855452653939752
sS'busy'
p378
F3.295836866004329
sS'layout'
p379
F5.241747015059643
sS'quaint'
p380
F4.548599834499697
sS'menu'
p381
F3.855452653939752
sS'weekends'
p382
F4.548599834499697
sS'folded'
p383
F5.241747015059643
sS'minnesota'
p384
F5.241747015059643
sS'rico'
p385
F5.241747015059643
sS'theme'
p386
F5.241747015059643
sS'touched'
p387
F5.241747015059643
sS'disgust'
p388
F5.241747015059643
sS'lodge'
p389
F4.143134726391533
sS'adequate'
p390
F5.241747015059643
sS'monica'
p391
F5.241747015059643
sS'colorful'
p392
F5.241747015059643
sS'watch'
p393
F3.632309102625542
sS'cardinals'
p394
F5.241747015059643
sS'coast'
p395
F4.143134726391533
sS'haunted'
p396
F5.241747015059643
sS'mention'
p397
F4.548599834499697
sS'new'
p398
F2.843851742261272
sS'happiest'
p399
F5.241747015059643
sS'runs'
p400
F3.632309102625542
sS'bar'
p401
F2.4085336710034264
sS'covering'
p402
F5.241747015059643
sS'nicely'
p403
F4.548599834499697
sS'bay'
p404
F5.241747015059643
sS'twice'
p405
F5.241747015059643
sS'bad'
p406
F3.295836866004329
sS'architecture'
p407
F4.548599834499697
sS'scrumptious'
p408
F5.241747015059643
sS'counters'
p409
F5.241747015059643
sS'ruins'
p410
F5.241747015059643
sS'thanks'
p411
F4.548599834499697
sS'headed'
p412
F4.143134726391533
sS'mandatory'
p413
F5.241747015059643
sS'fascinating'
p414
F5.241747015059643
sS'fluffy'
p415
F4.548599834499697
sS'restaraunts'
p416
F5.241747015059643
sS'decided'
p417
F2.843851742261272
sS'horrendous'
p418
F5.241747015059643
sS'best'
p419
F2.1507045617013265
sS'pete'
p420
F5.241747015059643
sS'said'
p421
F3.044522437723423
sS'lots'
p422
F4.548599834499697
sS'away'
p423
F2.1507045617013265
sS'interviewing'
p424
F5.241747015059643
sS'appealing'
p425
F5.241747015059643
sS'continually'
p426
F5.241747015059643
sS'unable'
p427
F4.548599834499697
sS'uppity'
p428
F5.241747015059643
sS'pets'
p429
F4.548599834499697
sS'drawn'
p430
F5.241747015059643
sS'sorts'
p431
F5.241747015059643
sS'encounters'
p432
F5.241747015059643
sS'pirate'
p433
F5.241747015059643
sS'letting'
p434
F5.241747015059643
sS'lazy'
p435
F5.241747015059643
sS'tables'
p436
F4.548599834499697
sS'smelled'
p437
F2.3513752571634776
sS'handful'
p438
F5.241747015059643
sS'weak'
p439
F5.241747015059643
sS'however'
p440
F2.4085336710034264
sS'wi'
p441
F4.548599834499697
sS'lotion'
p442
F5.241747015059643
sS'aquarium'
p443
F4.548599834499697
sS'upfront'
p444
F5.241747015059643
sS'packages'
p445
F5.241747015059643
sS'kitchen'
p446
F4.143134726391533
sS'received'
p447
F4.143134726391533
sS'climate'
p448
F5.241747015059643
sS'keycard'
p449
F5.241747015059643
sS'cot'
p450
F5.241747015059643
sS'veer'
p451
F5.241747015059643
sS'country'
p452
F4.143134726391533
sS'beacon'
p453
F5.241747015059643
sS'demanded'
p454
F5.241747015059643
sS'gasped'
p455
F5.241747015059643
sS'planned'
p456
F5.241747015059643
sS'faces'
p457
F5.241747015059643
sS'login'
p458
F5.241747015059643
sS'expense'
p459
F5.241747015059643
sS'asked'
p460
F3.632309102625542
sS'appeared'
p461
F5.241747015059643
sS'character'
p462
F5.241747015059643
sS'relaxation'
p463
F5.241747015059643
sS'gap'
p464
F5.241747015059643
sS'tons'
p465
F4.143134726391533
sS'towels'
p466
F2.7568403652716422
sS'majestic'
p467
F5.241747015059643
sS'loaded'
p468
F5.241747015059643
sS'speak'
p469
F4.143134726391533
sS'conference'
p470
F3.632309102625542
sS'bathroom'
p471
F1.9459101490553132
sS'union'
p472
F4.548599834499697
sS'dusting'
p473
F5.241747015059643
sS'three'
p474
F3.449987545831587
sS'tiny'
p475
F3.855452653939752
sS'quickly'
p476
F3.1623054733798064
sS'confident'
p477
F5.241747015059643
sS'beer'
p478
F5.241747015059643
sS'much'
p479
F2.297308035893202
sS'stadium'
p480
F4.548599834499697
sS'basic'
p481
F4.548599834499697
sS'privilege'
p482
F5.241747015059643
sS'entered'
p483
F3.632309102625542
sS'lovely'
p484
F4.548599834499697
sS'incompetent'
p485
F5.241747015059643
sS'threw'
p486
F4.143134726391533
sS'website'
p487
F3.449987545831587
sS'life'
p488
F3.295836866004329
sS'families'
p489
F3.855452653939752
sS'recomend'
p490
F5.241747015059643
sS'relaxing'
p491
F3.632309102625542
sS'chipped'
p492
F5.241747015059643
sS'strewn'
p493
F5.241747015059643
sS'reno'
p494
F5.241747015059643
sS'child'
p495
F4.548599834499697
sS'catch'
p496
F5.241747015059643
sS'galvez'
p497
F5.241747015059643
sS'worked'
p498
F4.143134726391533
sS'chill'
p499
F5.241747015059643
sS'east'
p500
F5.241747015059643
sS'pungent'
p501
F5.241747015059643
sS'professionally'
p502
F4.548599834499697
sS'air'
p503
F2.843851742261272
sS'ugly'
p504
F5.241747015059643
sS'near'
p505
F2.533696813957432
sS'neat'
p506
F5.241747015059643
sS'stopping'
p507
F5.241747015059643
sS'property'
p508
F3.295836866004329
sS'mistake'
p509
F5.241747015059643
sS'stink'
p510
F5.241747015059643
sS'pyramid'
p511
F4.143134726391533
sS'allows'
p512
F5.241747015059643
sS'customers'
p513
F5.241747015059643
sS'upscale'
p514
F4.143134726391533
sS'cans'
p515
F5.241747015059643
sS'exterior'
p516
F5.241747015059643
sS'bedsheets'
p517
F5.241747015059643
sS'ginza'
p518
F5.241747015059643
sS'conditioner'
p519
F3.632309102625542
sS'seattle'
p520
F4.143134726391533
sS'damaged'
p521
F5.241747015059643
sS'bottles'
p522
F4.548599834499697
sS'things'
p523
F4.143134726391533
sS'make'
p524
F2.1507045617013265
sS'amount'
p525
F4.143134726391533
sS'plated'
p526
F5.241747015059643
sS'beside'
p527
F4.143134726391533
sS'split'
p528
F5.241747015059643
sS'babies'
p529
F5.241747015059643
sS'visitations'
p530
F5.241747015059643
sS'several'
p531
F2.6026896854443837
sS'definately'
p532
F5.241747015059643
sS'fairly'
p533
F4.548599834499697
sS'hand'
p534
F3.632309102625542
sS'aston'
p535
F5.241747015059643
sS'characters'
p536
F5.241747015059643
sS'opportunity'
p537
F4.548599834499697
sS'kid'
p538
F4.548599834499697
sS'butter'
p539
F5.241747015059643
sS'kept'
p540
F3.449987545831587
sS'ocean'
p541
F3.1623054733798064
sS'burgers'
p542
F5.241747015059643
sS'hearty'
p543
F5.241747015059643
sS'greatest'
p544
F4.548599834499697
sS'qualities'
p545
F5.241747015059643
sS'claims'
p546
F5.241747015059643
sS'alabama'
p547
F5.241747015059643
sS'corporate'
p548
F3.632309102625542
sS'massaging'
p549
F5.241747015059643
sS'left'
p550
F2.469158292819861
sS'sleepy'
p551
F5.241747015059643
sS'swearing'
p552
F5.241747015059643
sS'thumbs'
p553
F5.241747015059643
sS'yes'
p554
F4.548599834499697
sS'yet'
p555
F3.632309102625542
sS'previous'
p556
F5.241747015059643
sS'note'
p557
F5.241747015059643
sS'shoud'
p558
F5.241747015059643
sS'hills'
p559
F5.241747015059643
sS'equipment'
p560
F5.241747015059643
sS'ease'
p561
F5.241747015059643
sS'royal'
p562
F4.548599834499697
sS'trampled'
p563
F5.241747015059643
sS'board'
p564
F4.548599834499697
sS'easy'
p565
F4.143134726391533
sS'save'
p566
F4.143134726391533
sS'gave'
p567
F2.843851742261272
sS'swarming'
p568
F5.241747015059643
sS'lcd'
p569
F5.241747015059643
sS'sanitary'
p570
F4.548599834499697
sS'roach'
p571
F5.241747015059643
sS'unique'
p572
F4.548599834499697
sS'burnt'
p573
F5.241747015059643
sS'roomiest'
p574
F5.241747015059643
sS'county'
p575
F5.241747015059643
sS'gift'
p576
F5.241747015059643
sS'orlando'
p577
F5.241747015059643
sS'informative'
p578
F5.241747015059643
sS'offices'
p579
F5.241747015059643
sS'sparse'
p580
F5.241747015059643
sS'night'
p581
F1.5281749483553344
sS'hung'
p582
F5.241747015059643
sS'security'
p583
F4.143134726391533
sS'towards'
p584
F5.241747015059643
sS'right'
p585
F2.0228711901914416
sS'old'
p586
F2.3513752571634776
sS'creek'
p587
F4.548599834499697
sS'deal'
p588
F3.295836866004329
sS'people'
p589
F2.533696813957432
sS'crown'
p590
F5.241747015059643
sS'dead'
p591
F4.143134726391533
sS'clubs'
p592
F5.241747015059643
sS'sure'
p593
F3.632309102625542
sS'hassle'
p594
F5.241747015059643
sS'poolside'
p595
F5.241747015059643
sS'dear'
p596
F4.548599834499697
sS'straightening'
p597
F5.241747015059643
sS'renamed'
p598
F5.241747015059643
sS'phenomenal'
p599
F5.241747015059643
sS'inhuman'
p600
F5.241747015059643
sS'ice'
p601
F5.241747015059643
sS'everything'
p602
F2.3513752571634776
sS'asking'
p603
F5.241747015059643
sS'unit'
p604
F5.241747015059643
sS'christmas'
p605
F4.548599834499697
sS'booking'
p606
F4.548599834499697
sS'mishawaka'
p607
F5.241747015059643
sS'disappeared'
p608
F5.241747015059643
sS'discount'
p609
F3.632309102625542
sS'buffet'
p610
F3.295836866004329
sS'memorable'
p611
F5.241747015059643
sS'super'
p612
F3.632309102625542
sS'properties'
p613
F4.548599834499697
sS'yelling'
p614
F5.241747015059643
sS'eat'
p615
F3.449987545831587
sS'dollars'
p616
F5.241747015059643
sS'months'
p617
F4.143134726391533
sS'burbank'
p618
F5.241747015059643
sS'magazine'
p619
F5.241747015059643
sS'plus'
p620
F3.632309102625542
sS'afternoon'
p621
F5.241747015059643
sS'islands'
p622
F5.241747015059643
sS'slightly'
p623
F5.241747015059643
sS'lied'
p624
F5.241747015059643
sS'facility'
p625
F5.241747015059643
sS'pays'
p626
F5.241747015059643
sS'honeymoon'
p627
F5.241747015059643
sS'delighted'
p628
F5.241747015059643
sS'misunderstanding'
p629
F5.241747015059643
sS'son'
p630
F4.548599834499697
sS'bowels'
p631
F5.241747015059643
sS'refined'
p632
F4.548599834499697
sS'renovating'
p633
F5.241747015059643
sS'hotle'
p634
F5.241747015059643
sS'creamers'
p635
F5.241747015059643
sS'cleared'
p636
F5.241747015059643
sS'flying'
p637
F5.241747015059643
sS'stuck'
p638
F3.855452653939752
sS'unwelcoming'
p639
F5.241747015059643
sS'way'
p640
F2.2460147415056513
sS'call'
p641
F3.295836866004329
sS'happy'
p642
F4.143134726391533
sS'questionable'
p643
F5.241747015059643
sS'head'
p644
F3.855452653939752
sS'form'
p645
F4.548599834499697
sS'offer'
p646
F4.143134726391533
sS'fireworks'
p647
F5.241747015059643
sS'landing'
p648
F4.548599834499697
sS'peninsula'
p649
F5.241747015059643
sS'heat'
p650
F5.241747015059643
sS'hear'
p651
F3.632309102625542
sS'surrender'
p652
F5.241747015059643
sS'true'
p653
F4.548599834499697
sS'fort'
p654
F5.241747015059643
sS'paneled'
p655
F5.241747015059643
sS'responding'
p656
F5.241747015059643
sS'type'
p657
F5.241747015059643
sS'inside'
p658
F3.1623054733798064
sS'attached'
p659
F4.143134726391533
sS'bargain'
p660
F4.548599834499697
sS'renovations'
p661
F4.143134726391533
sS'crystal'
p662
F4.143134726391533
sS'southernmost'
p663
F5.241747015059643
sS'hotter'
p664
F5.241747015059643
sS'minibar'
p665
F5.241747015059643
sS'clive'
p666
F5.241747015059643
sS'saltwater'
p667
F5.241747015059643
sS'request'
p668
F3.632309102625542
sS'ship'
p669
F5.241747015059643
sS'face'
p670
F5.241747015059643
sS'mold'
p671
F4.143134726391533
sS'check'
p672
F2.3513752571634776
sS'nh'
p673
F5.241747015059643
sS'looked'
p674
F2.533696813957432
sS'floor'
p675
F2.469158292819861
sS'accomodating'
p676
F4.548599834499697
sS'generally'
p677
F4.548599834499697
sS'handed'
p678
F5.241747015059643
sS'reality'
p679
F4.143134726391533
sS'ny'
p680
F4.548599834499697
sS'interested'
p681
F4.548599834499697
sS'carpeting'
p682
F4.548599834499697
sS'soundly'
p683
F5.241747015059643
sS'crowne'
p684
F5.241747015059643
sS'smell'
p685
F3.1623054733798064
sS'roll'
p686
F5.241747015059643
sS'palms'
p687
F5.241747015059643
sS'handicap'
p688
F5.241747015059643
sS'felt'
p689
F2.7568403652716422
sS'polite'
p690
F4.143134726391533
sS'trailers'
p691
F5.241747015059643
sS'fell'
p692
F4.548599834499697
sS'replacement'
p693
F5.241747015059643
sS'weekend'
p694
F2.843851742261272
sS'unlocking'
p695
F5.241747015059643
sS'apologizing'
p696
F5.241747015059643
sS'longer'
p697
F4.548599834499697
sS'glass'
p698
F4.548599834499697
sS'salt'
p699
F5.241747015059643
sS'daily'
p700
F5.241747015059643
sS'accented'
p701
F5.241747015059643
sS'beds'
p702
F2.1972245773362196
sS'reception'
p703
F4.143134726391533
sS'time'
p704
F1.48054689936608
sS'serious'
p705
F5.241747015059643
sS'themed'
p706
F4.548599834499697
sS'dance'
p707
F5.241747015059643
sS'alternatives'
p708
F5.241747015059643
sS'switches'
p709
F5.241747015059643
sS'manager'
p710
F3.855452653939752
sS'mile'
p711
F4.548599834499697
sS'nephew'
p712
F5.241747015059643
sS'comments'
p713
F5.241747015059643
sS'skin'
p714
F5.241747015059643
sS'milk'
p715
F5.241747015059643
sS'roanoke'
p716
F5.241747015059643
sS'certainly'
p717
F3.855452653939752
sS'vacanies'
p718
F5.241747015059643
sS'disgusting'
p719
F4.143134726391533
sS'environment'
p720
F5.241747015059643
sS'answered'
p721
F5.241747015059643
sS'charge'
p722
F4.143134726391533
sS'indoor'
p723
F3.1623054733798064
sS'choice'
p724
F4.548599834499697
sS'vegas'
p725
F3.1623054733798064
sS'bustle'
p726
F5.241747015059643
sS'stays'
p727
F4.548599834499697
sS'trouble'
p728
F4.143134726391533
sS'blast'
p729
F4.143134726391533
sS'exact'
p730
F5.241747015059643
sS'minute'
p731
F4.143134726391533
sS'cool'
p732
F4.143134726391533
sS'impressive'
p733
F5.241747015059643
sS'level'
p734
F3.295836866004329
sS'die'
p735
F5.241747015059643
sS'hawaii'
p736
F4.548599834499697
sS'minnie'
p737
F5.241747015059643
sS'standards'
p738
F5.241747015059643
sS'leave'
p739
F3.632309102625542
sS'bikes'
p740
F5.241747015059643
sS'subway'
p741
F4.548599834499697
sS'team'
p742
F4.548599834499697
sS'quick'
p743
F2.843851742261272
sS'dip'
p744
F4.548599834499697
sS'round'
p745
F3.855452653939752
sS'unaware'
p746
F5.241747015059643
sS'upper'
p747
F4.548599834499697
sS'work'
p748
F2.469158292819861
sS'sandcastle'
p749
F5.241747015059643
sS'akihabara'
p750
F5.241747015059643
sS'sign'
p751
F5.241747015059643
sS'cost'
p752
F3.855452653939752
sS'worn'
p753
F4.548599834499697
sS'eating'
p754
F4.548599834499697
sS'bake'
p755
F5.241747015059643
sS'fear'
p756
F5.241747015059643
sS'drinks'
p757
F3.295836866004329
sS'cleanliness'
p758
F4.143134726391533
sS'mall'
p759
F3.855452653939752
sS'pleased'
p760
F5.241747015059643
sS'margaritaville'
p761
F4.548599834499697
sS'international'
p762
F5.241747015059643
sS'appeal'
p763
F5.241747015059643
sS'filled'
p764
F4.143134726391533
sS'transportation'
p765
F5.241747015059643
sS'exercize'
p766
F5.241747015059643
sS'shuttle'
p767
F3.632309102625542
sS'clerk'
p768
F3.632309102625542
sS'french'
p769
F3.855452653939752
sS'water'
p770
F2.063693184711697
sS'snack'
p771
F4.143134726391533
sS'address'
p772
F4.548599834499697
sS'alone'
p773
F5.241747015059643
sS'along'
p774
F4.143134726391533
sS'roaring'
p775
F5.241747015059643
sS'elegantly'
p776
F5.241747015059643
sS'change'
p777
F3.044522437723423
sS'wait'
p778
F3.1623054733798064
sS'box'
p779
F5.241747015059643
sS'boy'
p780
F4.143134726391533
sS'bygone'
p781
F5.241747015059643
sS'boast'
p782
F5.241747015059643
sS'dusty'
p783
F5.241747015059643
sS'saws'
p784
F5.241747015059643
sS'wherever'
p785
F5.241747015059643
sS'bon'
p786
F5.241747015059643
sS'usually'
p787
F4.548599834499697
sS'conveniently'
p788
F3.855452653939752
sS'montreal'
p789
F5.241747015059643
sS'carpets'
p790
F3.855452653939752
sS'breathtaking'
p791
F4.548599834499697
sS'love'
p792
F3.1623054733798064
sS'extra'
p793
F3.449987545831587
sS'prefer'
p794
F5.241747015059643
sS'marvelous'
p795
F5.241747015059643
sS'prompt'
p796
F4.143134726391533
sS'market'
p797
F4.548599834499697
sS'hotels'
p798
F2.1972245773362196
sS'handled'
p799
F5.241747015059643
sS'working'
p800
F3.044522437723423
sS'positive'
p801
F3.855452653939752
sS'give'
p802
F4.143134726391533
sS'visit'
p803
F3.044522437723423
sS'fairfield'
p804
F5.241747015059643
sS'parties'
p805
F5.241747015059643
sS'live'
p806
F3.449987545831587
sS'going'
p807
F2.469158292819861
sS'checkout'
p808
F4.548599834499697
sS'roared'
p809
F5.241747015059643
sS'entrance'
p810
F5.241747015059643
sS'club'
p811
F5.241747015059643
sS'acceptable'
p812
F4.548599834499697
sS'apparent'
p813
F4.548599834499697
sS'oregon'
p814
F5.241747015059643
sS'chocolate'
p815
F4.548599834499697
sS'downtown'
p816
F2.6026896854443837
sS'mansfield'
p817
F5.241747015059643
sS'effort'
p818
F4.548599834499697
sS'diner'
p819
F5.241747015059643
sS'fly'
p820
F5.241747015059643
sS'tobacco'
p821
F5.241747015059643
sS'anything'
p822
F3.449987545831587
sS'tokyo'
p823
F5.241747015059643
sS'car'
p824
F3.1623054733798064
sS'originally'
p825
F5.241747015059643
sS'reviews'
p826
F4.143134726391533
sS'wallet'
p827
F4.548599834499697
sS'values'
p828
F5.241747015059643
sS'cab'
p829
F5.241747015059643
sS'carolina'
p830
F4.548599834499697
sS'heart'
p831
F4.548599834499697
sS'crazy'
p832
F5.241747015059643
sS'december'
p833
F5.241747015059643
sS'awesome'
p834
F4.143134726391533
sS'nascar'
p835
F5.241747015059643
sS'concierge'
p836
F5.241747015059643
sS'heard'
p837
F3.632309102625542
sS'sandbar'
p838
F5.241747015059643
sS'spa'
p839
F4.143134726391533
sS'winter'
p840
F4.548599834499697
sS'watching'
p841
F5.241747015059643
sS'dinner'
p842
F3.855452653939752
sS'pine'
p843
F5.241747015059643
sS'lounge'
p844
F4.548599834499697
sS'nowhere'
p845
F5.241747015059643
sS'pure'
p846
F5.241747015059643
sS'tile'
p847
F5.241747015059643
sS'economy'
p848
F5.241747015059643
sS'map'
p849
F5.241747015059643
sS'staying'
p850
F2.106252799130493
sS'mar'
p851
F5.241747015059643
sS'laundry'
p852
F5.241747015059643
sS'staircase'
p853
F5.241747015059643
sS'huge'
p854
F3.1623054733798064
sS'may'
p855
F3.855452653939752
sS'coworker'
p856
F5.241747015059643
sS'spot'
p857
F4.548599834499697
sS'disgusted'
p858
F5.241747015059643
sS'motorway'
p859
F5.241747015059643
sS'birthday'
p860
F3.632309102625542
sS'tipped'
p861
F5.241747015059643
sS'designed'
p862
F5.241747015059643
sS'floral'
p863
F5.241747015059643
sS'data'
p864
F5.241747015059643
sS'shockingly'
p865
F5.241747015059643
sS'man'
p866
F4.548599834499697
sS'disheartening'
p867
F5.241747015059643
sS'natural'
p868
F4.548599834499697
sS'neck'
p869
F5.241747015059643
sS'johnson'
p870
F5.241747015059643
sS'whenever'
p871
F4.548599834499697
sS'curry'
p872
F5.241747015059643
sS'wheelchair'
p873
F5.241747015059643
sS'ueno'
p874
F5.241747015059643
sS'complaining'
p875
F5.241747015059643
sS'switch'
p876
F4.143134726391533
sS'jail'
p877
F5.241747015059643
sS'lagoon'
p878
F5.241747015059643
sS'sc'
p879
F5.241747015059643
sS'tall'
p880
F5.241747015059643
sS'pulled'
p881
F4.548599834499697
sS'sf'
p882
F5.241747015059643
sS'talk'
p883
F5.241747015059643
sS'typical'
p884
F4.548599834499697
sS'refund'
p885
F3.855452653939752
sS'cute'
p886
F5.241747015059643
sS'furnished'
p887
F4.548599834499697
sS'midnight'
p888
F5.241747015059643
sS'unacceptable'
p889
F5.241747015059643
sS'years'
p890
F4.143134726391533
sS'ended'
p891
F3.449987545831587
sS'cold'
p892
F5.241747015059643
sS'still'
p893
F2.7568403652716422
sS'birds'
p894
F5.241747015059643
sS'splurge'
p895
F5.241747015059643
sS'supplemented'
p896
F5.241747015059643
sS'shopkeepers'
p897
F5.241747015059643
sS'beliefs'
p898
F5.241747015059643
sS'interesting'
p899
F5.241747015059643
sS'bagels'
p900
F5.241747015059643
sS'torn'
p901
F5.241747015059643
sS'amazing'
p902
F2.2460147415056513
sS'attraction'
p903
F5.241747015059643
sS'window'
p904
F4.143134726391533
sS'offers'
p905
F3.855452653939752
sS'spacious'
p906
F2.843851742261272
sS'farmer'
p907
F5.241747015059643
sS'policy'
p908
F4.548599834499697
sS'showered'
p909
F5.241747015059643
sS'main'
p910
F3.449987545831587
sS'texas'
p911
F4.548599834499697
sS'happened'
p912
F5.241747015059643
sS'non'
p913
F3.449987545831587
sS'tropicana'
p914
F5.241747015059643
sS'views'
p915
F4.143134726391533
sS'conversations'
p916
F5.241747015059643
sS'sooner'
p917
F5.241747015059643
sS'gourmet'
p918
F4.548599834499697
sS'underneath'
p919
F4.548599834499697
sS'lunch'
p920
F4.143134726391533
sS'drilling'
p921
F5.241747015059643
sS'half'
p922
F3.855452653939752
sS'arriving'
p923
F3.855452653939752
sS'bath'
p924
F3.632309102625542
sS'hall'
p925
F4.548599834499697
sS'name'
p926
F4.143134726391533
sS'lies'
p927
F5.241747015059643
sS'corners'
p928
F4.548599834499697
sS'drop'
p929
F5.241747015059643
sS'fisherman'
p930
F5.241747015059643
sS'rock'
p931
F4.548599834499697
sS'hinesville'
p932
F5.241747015059643
sS'entirely'
p933
F5.241747015059643
sS'quarter'
p934
F4.548599834499697
sS'concerts'
p935
F5.241747015059643
sS'el'
p936
F5.241747015059643
sS'square'
p937
F3.855452653939752
sS'eh'
p938
F5.241747015059643
sS'goose'
p939
F5.241747015059643
sS'entering'
p940
F5.241747015059643
sS'year'
p941
F2.9391619220655967
sS'girl'
p942
F5.241747015059643
sS'myrtle'
p943
F5.241747015059643
sS'intended'
p944
F5.241747015059643
sS'living'
p945
F4.548599834499697
sS'ultimately'
p946
F5.241747015059643
sS'opened'
p947
F4.548599834499697
sS'space'
p948
F3.632309102625542
sS'furthermore'
p949
F4.548599834499697
sS'looking'
p950
F3.044522437723423
sS'seriously'
p951
F5.241747015059643
sS'emerged'
p952
F5.241747015059643
sS'internet'
p953
F3.295836866004329
sS'blf'
p954
F5.241747015059643
sS'shows'
p955
F4.548599834499697
sS'charlotte'
p956
F5.241747015059643
sS'attended'
p957
F5.241747015059643
sS'state'
p958
F3.855452653939752
sS'cars'
p959
F4.548599834499697
sS'quite'
p960
F3.044522437723423
sS'unfriendly'
p961
F3.632309102625542
sS'california'
p962
F4.548599834499697
sS'vinyl'
p963
F5.241747015059643
sS'besides'
p964
F5.241747015059643
sS'ajar'
p965
F5.241747015059643
sS'obligation'
p966
F5.241747015059643
sS'remainder'
p967
F5.241747015059643
sS'card'
p968
F4.143134726391533
sS'care'
p969
F4.143134726391533
sS'advance'
p970
F5.241747015059643
sS'carnival'
p971
F5.241747015059643
sS'selections'
p972
F5.241747015059643
sS'programming'
p973
F5.241747015059643
sS'british'
p974
F5.241747015059643
sS'honest'
p975
F5.241747015059643
sS'thing'
p976
F2.843851742261272
sS'butterflies'
p977
F5.241747015059643
sS'place'
p978
F1.6041608553332567
sS'invitation'
p979
F5.241747015059643
sS'charleston'
p980
F4.548599834499697
sS'star'
p981
F3.855452653939752
sS'think'
p982
F3.632309102625542
sS'waited'
p983
F4.548599834499697
sS'first'
p984
F1.807759810574496
sS'cheese'
p985
F4.548599834499697
sS'initial'
p986
F5.241747015059643
sS'saving'
p987
F5.241747015059643
sS'impossibly'
p988
F5.241747015059643
sS'spoken'
p989
F5.241747015059643
sS'crib'
p990
F5.241747015059643
sS'one'
p991
F1.349926716949016
sS'specifically'
p992
F5.241747015059643
sS'impossible'
p993
F5.241747015059643
sS'sounds'
p994
F5.241747015059643
sS'drove'
p995
F4.143134726391533
sS'open'
p996
F3.449987545831587
sS'size'
p997
F2.9391619220655967
sS'city'
p998
F2.676797657598106
sS'little'
p999
F2.7568403652716422
sS'checked'
p1000
F3.044522437723423
sS'molded'
p1001
F5.241747015059643
sS'district'
p1002
F3.632309102625542
sS'phenix'
p1003
F5.241747015059643
sS'caught'
p1004
F5.241747015059643
sS'structured'
p1005
F5.241747015059643
sS'anyone'
p1006
F2.469158292819861
sS'convention'
p1007
F4.548599834499697
sS'white'
p1008
F4.548599834499697
sS'speaking'
p1009
F4.548599834499697
sS'exploring'
p1010
F5.241747015059643
sS'homemade'
p1011
F5.241747015059643
sS'hub'
p1012
F5.241747015059643
sS'pittsburgh'
p1013
F5.241747015059643
sS'season'
p1014
F4.548599834499697
sS'hut'
p1015
F5.241747015059643
sS'ridiculous'
p1016
F5.241747015059643
sS'ginormous'
p1017
F5.241747015059643
sS'flowers'
p1018
F5.241747015059643
sS'holder'
p1019
F4.548599834499697
sS'appreciated'
p1020
F5.241747015059643
sS'television'
p1021
F3.632309102625542
sS'unfortunately'
p1022
F4.143134726391533
sS'duval'
p1023
F5.241747015059643
sS'begrudgingly'
p1024
F5.241747015059643
sS'transferred'
p1025
F5.241747015059643
sS'victorian'
p1026
F4.548599834499697
sS'future'
p1027
F4.143134726391533
sS'venture'
p1028
F4.548599834499697
sS'trekking'
p1029
F5.241747015059643
sS'cards'
p1030
F5.241747015059643
sS'asleep'
p1031
F5.241747015059643
sS'wandering'
p1032
F5.241747015059643
sS'pre'
p1033
F5.241747015059643
sS'buries'
p1034
F5.241747015059643
sS'san'
p1035
F3.449987545831587
sS'nicer'
p1036
F4.143134726391533
sS'appreciate'
p1037
F4.548599834499697
sS'turned'
p1038
F4.143134726391533
sS'locations'
p1039
F4.143134726391533
sS'alley'
p1040
F5.241747015059643
sS'sad'
p1041
F4.143134726391533
sS'say'
p1042
F3.449987545831587
sS'voiced'
p1043
F5.241747015059643
sS'breakfast'
p1044
F1.715386490443481
sS'saw'
p1045
F3.295836866004329
sS'sat'
p1046
F5.241747015059643
sS'lumpy'
p1047
F5.241747015059643
sS'offering'
p1048
F4.143134726391533
sS'ideas'
p1049
F5.241747015059643
sS'zoo'
p1050
F5.241747015059643
sS'terrific'
p1051
F5.241747015059643
sS'dining'
p1052
F3.449987545831587
sS'ideal'
p1053
F4.548599834499697
sS'jefferson'
p1054
F5.241747015059643
sS'take'
p1055
F2.676797657598106
sS'online'
p1056
F5.241747015059643
sS'interior'
p1057
F4.143134726391533
sS'wanting'
p1058
F5.241747015059643
sS'personalized'
p1059
F5.241747015059643
sS'rounded'
p1060
F5.241747015059643
sS'surf'
p1061
F5.241747015059643
sS'begin'
p1062
F4.548599834499697
sS'hoover'
p1063
F5.241747015059643
sS'multiple'
p1064
F3.855452653939752
sS'theatre'
p1065
F5.241747015059643
sS'normal'
p1066
F5.241747015059643
sS'attractiveness'
p1067
F5.241747015059643
sS'price'
p1068
F1.9459101490553132
sS'knew'
p1069
F5.241747015059643
sS'microwaves'
p1070
F5.241747015059643
sS'paid'
p1071
F2.843851742261272
sS'falls'
p1072
F4.548599834499697
sS'sheets'
p1073
F2.469158292819861
sS'complaints'
p1074
F3.449987545831587
sS'america'
p1075
F3.855452653939752
sS'damage'
p1076
F5.241747015059643
sS'thsi'
p1077
F5.241747015059643
sS'wireless'
p1078
F5.241747015059643
sS'beachfront'
p1079
F4.548599834499697
sS'especially'
p1080
F3.449987545831587
sS'surprising'
p1081
F5.241747015059643
sS'average'
p1082
F3.855452653939752
sS'later'
p1083
F3.044522437723423
sS'drive'
p1084
F3.044522437723423
sS'pores'
p1085
F5.241747015059643
sS'wing'
p1086
F5.241747015059643
sS'microtel'
p1087
F5.241747015059643
sS'professional'
p1088
F4.548599834499697
sS'typically'
p1089
F5.241747015059643
sS'luxor'
p1090
F4.548599834499697
sS'shop'
p1091
F5.241747015059643
sS'walking'
p1092
F2.7568403652716422
sS'horribly'
p1093
F4.143134726391533
sS'wynn'
p1094
F5.241747015059643
sS'show'
p1095
F3.632309102625542
sS'cheap'
p1096
F2.9391619220655967
sS'contemporary'
p1097
F5.241747015059643
sS'bright'
p1098
F3.855452653939752
sS'spaces'
p1099
F4.548599834499697
sS'corner'
p1100
F3.855452653939752
sS'crashing'
p1101
F5.241747015059643
sS'upgrade'
p1102
F4.548599834499697
sS'gulf'
p1103
F5.241747015059643
sS'stained'
p1104
F4.548599834499697
sS'enough'
p1105
F3.044522437723423
sS'lansing'
p1106
F4.548599834499697
sS'wood'
p1107
F3.855452653939752
sS'black'
p1108
F5.241747015059643
sS'hockey'
p1109
F5.241747015059643
sS'partake'
p1110
F5.241747015059643
sS'blinds'
p1111
F5.241747015059643
sS'centrally'
p1112
F4.548599834499697
sS'televisions'
p1113
F4.548599834499697
sS'phuket'
p1114
F5.241747015059643
sS'closed'
p1115
F4.143134726391533
sS'get'
p1116
F1.3915994133495837
sS'jazz'
p1117
F4.548599834499697
sS'balconies'
p1118
F5.241747015059643
sS'truly'
p1119
F4.548599834499697
sS'cursing'
p1120
F5.241747015059643
sS'nearly'
p1121
F4.548599834499697
sS'clerks'
p1122
F4.548599834499697
sS'celebrate'
p1123
F5.241747015059643
sS'leather'
p1124
F5.241747015059643
sS'morning'
p1125
F2.676797657598106
sS'tiki'
p1126
F5.241747015059643
sS'miles'
p1127
F4.143134726391533
sS'husband'
p1128
F2.6026896854443837
sS'ignored'
p1129
F4.548599834499697
sS'breslin'
p1130
F5.241747015059643
sS'violated'
p1131
F5.241747015059643
sS'cocktails'
p1132
F5.241747015059643
sS'college'
p1133
F4.143134726391533
sS'parking'
p1134
F2.676797657598106
sS'ruined'
p1135
F4.548599834499697
sS'concern'
p1136
F4.548599834499697
sS'suspects'
p1137
F5.241747015059643
sS'ways'
p1138
F4.548599834499697
sS'definite'
p1139
F5.241747015059643
sS'outside'
p1140
F2.843851742261272
sS'moldy'
p1141
F4.548599834499697
sS'skyscraper'
p1142
F5.241747015059643
sS'refreshed'
p1143
F4.548599834499697
sS'reading'
p1144
F5.241747015059643
sS'across'
p1145
F3.449987545831587
sS'affordable'
p1146
F3.855452653939752
sS'notice'
p1147
F4.548599834499697
sS'jobs'
p1148
F5.241747015059643
sS'august'
p1149
F5.241747015059643
sS'tup'
p1150
F5.241747015059643
sS'screen'
p1151
F3.449987545831587
sS'moana'
p1152
F5.241747015059643
sS'dome'
p1153
F5.241747015059643
sS'jr'
p1154
F5.241747015059643
sS'coma'
p1155
F5.241747015059643
sS'tub'
p1156
F3.449987545831587
sS'cities'
p1157
F5.241747015059643
sS'come'
p1158
F3.295836866004329
sS'coupons'
p1159
F5.241747015059643
sS'many'
p1160
F2.1507045617013265
sS'ballpark'
p1161
F5.241747015059643
sS'quiet'
p1162
F2.9391619220655967
sS'personal'
p1163
F5.241747015059643
sS'tour'
p1164
F4.548599834499697
sS'patrons'
p1165
F5.241747015059643
sS'disappointment'
p1166
F4.548599834499697
sS'furnitures'
p1167
F5.241747015059643
sS'nearby'
p1168
F3.1623054733798064
sS'duty'
p1169
F5.241747015059643
sS'color'
p1170
F5.241747015059643
sS'pot'
p1171
F5.241747015059643
sS'period'
p1172
F5.241747015059643
sS'venues'
p1173
F5.241747015059643
sS'sampling'
p1174
F5.241747015059643
sS'twin'
p1175
F4.548599834499697
sS'sadly'
p1176
F5.241747015059643
sS'constant'
p1177
F4.548599834499697
sS'boat'
p1178
F5.241747015059643
sS'considering'
p1179
F4.548599834499697
sS'howard'
p1180
F5.241747015059643
sS'west'
p1181
F4.548599834499697
sS'inclusive'
p1182
F5.241747015059643
sS'informed'
p1183
F3.632309102625542
sS'vacation'
p1184
F2.6026896854443837
sS'mark'
p1185
F5.241747015059643
sS'tropical'
p1186
F5.241747015059643
sS'combined'
p1187
F4.548599834499697
sS'peaceful'
p1188
F3.449987545831587
sS'featuring'
p1189
F5.241747015059643
sS'hardly'
p1190
F4.548599834499697
sS'wants'
p1191
F5.241747015059643
sS'shopping'
p1192
F3.044522437723423
sS'tasteless'
p1193
F5.241747015059643
sS'offered'
p1194
F2.843851742261272
sS'reaching'
p1195
F5.241747015059643
sS'regency'
p1196
F4.548599834499697
sS'photos'
p1197
F5.241747015059643
sS'optimist'
p1198
F5.241747015059643
sS'wake'
p1199
F4.548599834499697
sS'attentive'
p1200
F5.241747015059643
sS'travelling'
p1201
F4.548599834499697
sS'sound'
p1202
F5.241747015059643
sS'accommodating'
p1203
F3.449987545831587
sS'handicapped'
p1204
F5.241747015059643
sS'residence'
p1205
F5.241747015059643
sS'situation'
p1206
F4.548599834499697
sS'shops'
p1207
F3.1623054733798064
sS'penthouse'
p1208
F4.548599834499697
sS'ive'
p1209
F4.143134726391533
sS'bathrooms'
p1210
F3.855452653939752
sS'candies'
p1211
F5.241747015059643
sS'telephone'
p1212
F5.241747015059643
sS'sleeping'
p1213
F3.295836866004329
sS'middle'
p1214
F3.044522437723423
sS'good'
p1215
F2.2460147415056513
sS'capping'
p1216
F5.241747015059643
sS'return'
p1217
F3.855452653939752
sS'activity'
p1218
F5.241747015059643
sS'everyday'
p1219
F4.143134726391533
sS'worry'
p1220
F5.241747015059643
sS'bags'
p1221
F4.548599834499697
sS'different'
p1222
F2.7568403652716422
sS'pay'
p1223
F3.295836866004329
sS'reminded'
p1224
F4.548599834499697
sS'cabana'
p1225
F5.241747015059643
sS'trip'
p1226
F2.533696813957432
sS'lucian'
p1227
F5.241747015059643
sS'events'
p1228
F5.241747015059643
sS'dated'
p1229
F3.1623054733798064
sS'week'
p1230
F3.295836866004329
sS'extended'
p1231
F4.548599834499697
sS'closest'
p1232
F5.241747015059643
sS'assist'
p1233
F5.241747015059643
sS'driven'
p1234
F4.548599834499697
sS'decently'
p1235
F5.241747015059643
sS'fruit'
p1236
F3.449987545831587
sS'climbing'
p1237
F4.548599834499697
sS'complained'
p1238
F4.143134726391533
sS'westin'
p1239
F3.855452653939752
sS'theater'
p1240
F5.241747015059643
sS'largely'
p1241
F5.241747015059643
sS'pennsylvania'
p1242
F5.241747015059643
sS'costs'
p1243
F5.241747015059643
sS'bottle'
p1244
F4.548599834499697
sS'trains'
p1245
F5.241747015059643
sS'model'
p1246
F5.241747015059643
sS'hubby'
p1247
F5.241747015059643
sS'amazed'
p1248
F5.241747015059643
sS'consisted'
p1249
F5.241747015059643
sS'taxi'
p1250
F4.548599834499697
sS'summer'
p1251
F3.295836866004329
sS'outdoor'
p1252
F4.548599834499697
sS'marriot'
p1253
F5.241747015059643
sS'money'
p1254
F2.533696813957432
sS'sights'
p1255
F4.548599834499697
sS'rest'
p1256
F3.855452653939752
sS'aspect'
p1257
F5.241747015059643
sS'touch'
p1258
F5.241747015059643
sS'speed'
p1259
F5.241747015059643
sS'blow'
p1260
F5.241747015059643
sS'dipped'
p1261
F5.241747015059643
sS'deceiving'
p1262
F5.241747015059643
sS'hint'
p1263
F5.241747015059643
sS'thinking'
p1264
F4.548599834499697
sS'seems'
p1265
F4.548599834499697
sS'except'
p1266
F5.241747015059643
sS'setting'
p1267
F5.241747015059643
sS'treatment'
p1268
F5.241747015059643
sS'ghostly'
p1269
F5.241747015059643
sS'real'
p1270
F4.548599834499697
sS'around'
p1271
F2.3513752571634776
sS'spectacular'
p1272
F5.241747015059643
sS'easily'
p1273
F4.548599834499697
sS'virginia'
p1274
F3.855452653939752
sS'dark'
p1275
F3.855452653939752
sS'test'
p1276
F5.241747015059643
sS'traffic'
p1277
F4.143134726391533
sS'oxnard'
p1278
F5.241747015059643
sS'politely'
p1279
F5.241747015059643
sS'world'
p1280
F3.855452653939752
sS'railroad'
p1281
F5.241747015059643
sS'accepted'
p1282
F5.241747015059643
sS'lady'
p1283
F5.241747015059643
sS'alpharetta'
p1284
F5.241747015059643
sS'furniture'
p1285
F5.241747015059643
sS'partaking'
p1286
F5.241747015059643
sS'towel'
p1287
F5.241747015059643
sS'stranger'
p1288
F5.241747015059643
sS'photographs'
p1289
F4.548599834499697
sS'hotel'
p1290
F0.23111172096338664
sS'everytime'
p1291
F5.241747015059643
sS'maintained'
p1292
F4.143134726391533
sS'oddly'
p1293
F5.241747015059643
sS'facing'
p1294
F5.241747015059643
sS'either'
p1295
F3.449987545831587
sS'fully'
p1296
F4.548599834499697
sS'resolved'
p1297
F5.241747015059643
sS'served'
p1298
F4.548599834499697
sS'tower'
p1299
F4.548599834499697
sS'attenitive'
p1300
F5.241747015059643
sS'joking'
p1301
F5.241747015059643
sS'competition'
p1302
F5.241747015059643
sS'table'
p1303
F3.855452653939752
sS'divine'
p1304
F5.241747015059643
sS'redeeming'
p1305
F5.241747015059643
sS'provided'
p1306
F3.449987545831587
sS'shinjuku'
p1307
F5.241747015059643
sS'caribbean'
p1308
F5.241747015059643
sS'mood'
p1309
F5.241747015059643
sS'memories'
p1310
F5.241747015059643
sS'noon'
p1311
F5.241747015059643
sS'filling'
p1312
F5.241747015059643
sS'stops'
p1313
F4.548599834499697
sS'provides'
p1314
F5.241747015059643
sS'hustle'
p1315
F5.241747015059643
sS'emmaculate'
p1316
F5.241747015059643
sS'welcome'
p1317
F3.632309102625542
sS'business'
p1318
F3.295836866004329
sS'dissapointing'
p1319
F5.241747015059643
sS'itching'
p1320
F4.548599834499697
sS'chefs'
p1321
F5.241747015059643
sS'iconic'
p1322
F5.241747015059643
sS'broken'
p1323
F3.632309102625542
sS'binghamton'
p1324
F5.241747015059643
sS'accommodated'
p1325
F4.548599834499697
sS'sixty'
p1326
F5.241747015059643
sS'thailand'
p1327
F5.241747015059643
sS'exciting'
p1328
F5.241747015059643
sS'throw'
p1329
F5.241747015059643
sS'beaches'
p1330
F5.241747015059643
sS'baffled'
p1331
F5.241747015059643
sS'stone'
p1332
F4.548599834499697
sS'ok'
p1333
F4.548599834499697
sS'package'
p1334
F5.241747015059643
sS'island'
p1335
F4.548599834499697
sS'teddy'
p1336
F5.241747015059643
sS'favorite'
p1337
F4.143134726391533
sS'meal'
p1338
F4.143134726391533
sS'unseasonable'
p1339
F5.241747015059643
sS'wolf'
p1340
F5.241747015059643
sS'airline'
p1341
F4.548599834499697
sS'act'
p1342
F5.241747015059643
sS'marriott'
p1343
F3.855452653939752
sS'road'
p1344
F4.548599834499697
sS'burning'
p1345
F5.241747015059643
sS'inclusion'
p1346
F5.241747015059643
sS'comforters'
p1347
F5.241747015059643
sS'empress'
p1348
F5.241747015059643
sS'accounts'
p1349
F5.241747015059643
sS'lively'
p1350
F5.241747015059643
sS'goreous'
p1351
F5.241747015059643
sS'operator'
p1352
F5.241747015059643
sS'dirtyand'
p1353
F5.241747015059643
sS'fast'
p1354
F5.241747015059643
sS'prepare'
p1355
F5.241747015059643
sS'area'
p1356
F1.715386490443481
sS'distracted'
p1357
F5.241747015059643
sS'lounging'
p1358
F4.143134726391533
sS'strip'
p1359
F3.295836866004329
sS'start'
p1360
F4.143134726391533
sS'low'
p1361
F3.632309102625542
sS'stars'
p1362
F5.241747015059643
sS'exceptional'
p1363
F4.548599834499697
sS'fish'
p1364
F5.241747015059643
sS'immaculate'
p1365
F4.548599834499697
sS'overpaid'
p1366
F5.241747015059643
sS'mornings'
p1367
F4.143134726391533
sS'complete'
p1368
F3.855452653939752
sS'tranquility'
p1369
F5.241747015059643
sS'amongst'
p1370
F5.241747015059643
sS'staircases'
p1371
F5.241747015059643
sS'keepsakes'
p1372
F5.241747015059643
sS'antiquated'
p1373
F5.241747015059643
sS'pitched'
p1374
F5.241747015059643
sS'trying'
p1375
F4.548599834499697
sS'downstairs'
p1376
F3.632309102625542
sS'pull'
p1377
F5.241747015059643
sS'rush'
p1378
F4.548599834499697
sS'romantic'
p1379
F5.241747015059643
sS'planters'
p1380
F5.241747015059643
sS'dirty'
p1381
F2.1972245773362196
sS'creeping'
p1382
F5.241747015059643
sS'rust'
p1383
F5.241747015059643
sS'expect'
p1384
F3.295836866004329
sS'strongly'
p1385
F5.241747015059643
sS'toilet'
p1386
F3.295836866004329
sS'ac'
p1387
F5.241747015059643
sS'shiodome'
p1388
F5.241747015059643
sS'toiler'
p1389
F5.241747015059643
sS'taste'
p1390
F4.548599834499697
sS'certain'
p1391
F4.548599834499697
sS'forgot'
p1392
F5.241747015059643
sS'moved'
p1393
F4.548599834499697
sS'minneapolis'
p1394
F5.241747015059643
sS'salem'
p1395
F5.241747015059643
sS'together'
p1396
F4.143134726391533
sS'girlfriend'
p1397
F4.143134726391533
sS'lifetime'
p1398
F5.241747015059643
sS'rubbed'
p1399
F5.241747015059643
sS'drafty'
p1400
F5.241747015059643
sS'field'
p1401
F5.241747015059643
sS'unparalleled'
p1402
F5.241747015059643
sS'evenings'
p1403
F5.241747015059643
sS'gambling'
p1404
F5.241747015059643
sS'trash'
p1405
F4.143134726391533
sS'dismayed'
p1406
F5.241747015059643
sS'intention'
p1407
F5.241747015059643
sS'poor'
p1408
F3.632309102625542
sS'requested'
p1409
F3.449987545831587
sS'pillows'
p1410
F3.295836866004329
sS'congress'
p1411
F5.241747015059643
sS'separate'
p1412
F3.632309102625542
sS'refunded'
p1413
F5.241747015059643
sS'teeth'
p1414
F4.548599834499697
sS'slant'
p1415
F5.241747015059643
sS'gifts'
p1416
F5.241747015059643
sS'important'
p1417
F4.143134726391533
sS'massachusetts'
p1418
F5.241747015059643
sS'fresh'
p1419
F2.676797657598106
sS'included'
p1420
F3.295836866004329
sS'decorated'
p1421
F3.632309102625542
sS'finals'
p1422
F5.241747015059643
sS'pool'
p1423
F1.7452394535931621
sS'building'
p1424
F2.843851742261272
sS'tiger'
p1425
F5.241747015059643
sS'booked'
p1426
F2.469158292819861
sS'remote'
p1427
F5.241747015059643
sS'calls'
p1428
F4.143134726391533
sS'wife'
p1429
F3.449987545831587
sS'wifi'
p1430
F3.449987545831587
sS'untidy'
p1431
F5.241747015059643
sS'spills'
p1432
F5.241747015059643
sS'adam'
p1433
F5.241747015059643
sS'terranea'
p1434
F5.241747015059643
sS'god'
p1435
F5.241747015059643
sS'deluxe'
p1436
F5.241747015059643
sS'transports'
p1437
F5.241747015059643
sS'original'
p1438
F5.241747015059643
sS'since'
p1439
F3.1623054733798064
sS'forget'
p1440
F5.241747015059643
sS'chinese'
p1441
F5.241747015059643
sS'lack'
p1442
F3.632309102625542
sS'dollar'
p1443
F5.241747015059643
sS'ala'
p1444
F5.241747015059643
sS'debris'
p1445
F5.241747015059643
sS'smoking'
p1446
F3.295836866004329
sS'messy'
p1447
F5.241747015059643
sS'fixtures'
p1448
F5.241747015059643
sS'children'
p1449
F3.295836866004329
sS'antoinette'
p1450
F5.241747015059643
sS'preserves'
p1451
F5.241747015059643
sS'tv'
p1452
F2.6026896854443837
sS'lining'
p1453
F5.241747015059643
sS'microwave'
p1454
F4.143134726391533
sS'th'
p1455
F5.241747015059643
sS'woould'
p1456
F5.241747015059643
sS'health'
p1457
F5.241747015059643
sS'enjoying'
p1458
F3.632309102625542
sS'hill'
p1459
F5.241747015059643
sS'roadway'
p1460
F5.241747015059643
sS'activities'
p1461
F3.632309102625542
sS'woman'
p1462
F4.143134726391533
sS'premium'
p1463
F5.241747015059643
sS'worse'
p1464
F3.855452653939752
sS'returning'
p1465
F3.449987545831587
sS'far'
p1466
F2.6026896854443837
sS'fav'
p1467
F5.241747015059643
sS'fan'
p1468
F4.548599834499697
sS'minded'
p1469
F5.241747015059643
sS'got'
p1470
F1.9836504770381602
sS'awful'
p1471
F4.143134726391533
sS'strand'
p1472
F5.241747015059643
sS'syracuse'
p1473
F5.241747015059643
sS'heaven'
p1474
F4.548599834499697
sS'washing'
p1475
F5.241747015059643
sS'cable'
p1476
F4.143134726391533
sS'louis'
p1477
F4.548599834499697
sS'celebrity'
p1478
F4.548599834499697
sS'laying'
p1479
F4.548599834499697
sS'joined'
p1480
F5.241747015059643
sS'large'
p1481
F2.7568403652716422
sS'sand'
p1482
F5.241747015059643
sS'plain'
p1483
F5.241747015059643
sS'small'
p1484
F2.1507045617013265
sS'teh'
p1485
F5.241747015059643
sS'cookies'
p1486
F4.548599834499697
sS'rats'
p1487
F5.241747015059643
sS'ten'
p1488
F4.548599834499697
sS'tea'
p1489
F5.241747015059643
sS'past'
p1490
F4.143134726391533
sS'go'
p1491
F2.297308035893202
sS'rate'
p1492
F3.449987545831587
sS'design'
p1493
F4.548599834499697
sS'teas'
p1494
F5.241747015059643
sS'situated'
p1495
F4.548599834499697
sS'returned'
p1496
F4.143134726391533
sS'dial'
p1497
F4.548599834499697
sS'abc'
p1498
F5.241747015059643
sS'stood'
p1499
F5.241747015059643
sS'darkness'
p1500
F5.241747015059643
sS'sun'
p1501
F4.548599834499697
sS'musty'
p1502
F4.143134726391533
sS'choson'
p1503
F5.241747015059643
sS'experience'
p1504
F1.807759810574496
sS'plush'
p1505
F5.241747015059643
sS'full'
p1506
F2.7568403652716422
sS'tags'
p1507
F5.241747015059643
sS'unprofessional'
p1508
F5.241747015059643
sS'argonaut'
p1509
F5.241747015059643
sS'answers'
p1510
F5.241747015059643
sS'hours'
p1511
F2.676797657598106
sS'tracks'
p1512
F5.241747015059643
sS'operating'
p1513
F5.241747015059643
sS'beachside'
p1514
F5.241747015059643
sS'directions'
p1515
F5.241747015059643
sS'steamships'
p1516
F5.241747015059643
sS'personable'
p1517
F5.241747015059643
sS'search'
p1518
F5.241747015059643
sS'colored'
p1519
F4.143134726391533
sS'extraordinary'
p1520
F5.241747015059643
sS'riviera'
p1521
F5.241747015059643
sS'vegetarian'
p1522
F5.241747015059643
sS'exceptionally'
p1523
F5.241747015059643
sS'cucumbers'
p1524
F5.241747015059643
sS'airport'
p1525
F3.855452653939752
sS'action'
p1526
F5.241747015059643
sS'options'
p1527
F3.295836866004329
sS'disneyland'
p1528
F5.241747015059643
sS'abeyance'
p1529
F5.241747015059643
sS'family'
p1530
F2.469158292819861
sS'buses'
p1531
F5.241747015059643
sS'suddenly'
p1532
F5.241747015059643
sS'ask'
p1533
F3.449987545831587
sS'trained'
p1534
F5.241747015059643
sS'wanted'
p1535
F3.044522437723423
sS'eye'
p1536
F5.241747015059643
sS'takes'
p1537
F5.241747015059643
sS'occassion'
p1538
F5.241747015059643
sS'faint'
p1539
F5.241747015059643
sS'two'
p1540
F2.1507045617013265
sS'rustic'
p1541
F5.241747015059643
sS'pearl'
p1542
F5.241747015059643
sS'amenities'
p1543
F2.533696813957432
sS'gorgeous'
p1544
F3.632309102625542
sS'taken'
p1545
F3.449987545831587
sS'tacky'
p1546
F4.548599834499697
sS'flat'
p1547
F3.449987545831587
sS'diamond'
p1548
F5.241747015059643
sS'door'
p1549
F2.676797657598106
sS'company'
p1550
F5.241747015059643
sS'site'
p1551
F5.241747015059643
sS'basically'
p1552
F5.241747015059643
sS'broke'
p1553
F5.241747015059643
sS'particular'
p1554
F4.143134726391533
sS'known'
p1555
F5.241747015059643
sS'glad'
p1556
F4.548599834499697
sS'town'
p1557
F3.1623054733798064
sS'grill'
p1558
F4.143134726391533
sS'keeping'
p1559
F4.143134726391533
sS'hour'
p1560
F3.044522437723423
sS'blah'
p1561
F5.241747015059643
sS'gaucho'
p1562
F5.241747015059643
sS'sucks'
p1563
F5.241747015059643
sS'remain'
p1564
F5.241747015059643
sS'knocked'
p1565
F4.548599834499697
sS'male'
p1566
F5.241747015059643
sS'marble'
p1567
F4.548599834499697
sS'history'
p1568
F4.548599834499697
sS'beautiful'
p1569
F2.297308035893202
sS'needing'
p1570
F5.241747015059643
sS'atrocious'
p1571
F4.548599834499697
sS'stated'
p1572
F4.548599834499697
sS'baths'
p1573
F5.241747015059643
sS'terrible'
p1574
F3.295836866004329
sS'niagara'
p1575
F5.241747015059643
sS'purchased'
p1576
F5.241747015059643
sS'pond'
p1577
F5.241747015059643
sS'information'
p1578
F5.241747015059643
sS'needs'
p1579
F4.143134726391533
sS'answer'
p1580
F5.241747015059643
sS'court'
p1581
F5.241747015059643
sS'awkward'
p1582
F5.241747015059643
sS'rather'
p1583
F4.143134726391533
sS'plans'
p1584
F5.241747015059643
sS'comfort'
p1585
F3.632309102625542
sS'stayed'
p1586
F1.2344138298271714
sS'maps'
p1587
F5.241747015059643
sS'freshly'
p1588
F5.241747015059643
sS'motels'
p1589
F4.548599834499697
sS'tried'
p1590
F4.143134726391533
sS'rude'
p1591
F2.9391619220655967
sS'suppose'
p1592
F5.241747015059643
sS'advice'
p1593
F5.241747015059643
sS'par'
p1594
F5.241747015059643
sS'plane'
p1595
F5.241747015059643
sS'lighting'
p1596
F5.241747015059643
sS'polynesian'
p1597
F5.241747015059643
sS'coming'
p1598
F4.143134726391533
sS'fi'
p1599
F4.548599834499697
sS'fl'
p1600
F4.548599834499697
sS'short'
p1601
F3.632309102625542
sS'crowded'
p1602
F4.548599834499697
sS'toiletries'
p1603
F4.548599834499697
sS'register'
p1604
F4.548599834499697
sS'bugs'
p1605
F3.855452653939752
sS'hilton'
p1606
F3.855452653939752
sS'shore'
p1607
F5.241747015059643
sS'grande'
p1608
F4.548599834499697
sS'deafening'
p1609
F5.241747015059643
sS'media'
p1610
F5.241747015059643
sS'pleasure'
p1611
F4.143134726391533
sS'rentals'
p1612
F4.548599834499697
sS'playing'
p1613
F4.548599834499697
sS'servicing'
p1614
F5.241747015059643
sS'pans'
p1615
F5.241747015059643
sS'mexican'
p1616
F4.548599834499697
sS'help'
p1617
F3.449987545831587
sS'stains'
p1618
F3.449987545831587
sS'advised'
p1619
F5.241747015059643
sS'soon'
p1620
F3.449987545831587
sS'anehiem'
p1621
F5.241747015059643
sS'held'
p1622
F4.548599834499697
sS'paper'
p1623
F3.044522437723423
sS'hell'
p1624
F5.241747015059643
sS'smiling'
p1625
F5.241747015059643
sS'style'
p1626
F4.548599834499697
sS'debilitated'
p1627
F5.241747015059643
sS'termed'
p1628
F5.241747015059643
sS'caesars'
p1629
F5.241747015059643
sS'actually'
p1630
F3.044522437723423
sS'late'
p1631
F3.044522437723423
sS'resort'
p1632
F2.6026896854443837
sS'parts'
p1633
F4.548599834499697
sS'bummer'
p1634
F5.241747015059643
sS'nifty'
p1635
F5.241747015059643
sS'penn'
p1636
F5.241747015059643
sS'bout'
p1637
F5.241747015059643
sS'might'
p1638
F3.855452653939752
sS'hurting'
p1639
F5.241747015059643
sS'someone'
p1640
F3.044522437723423
sS'toiletry'
p1641
F5.241747015059643
sS'disrespectful'
p1642
F5.241747015059643
sS'seeking'
p1643
F5.241747015059643
sS'food'
p1644
F2.0228711901914416
sS'doughnuts'
p1645
F5.241747015059643
sS'males'
p1646
F5.241747015059643
sS'inch'
p1647
F5.241747015059643
sS'walls'
p1648
F2.843851742261272
sS'grubby'
p1649
F5.241747015059643
sS'starbucks'
p1650
F4.143134726391533
sS'party'
p1651
F3.1623054733798064
sS'foot'
p1652
F4.548599834499697
sS'complain'
p1653
F4.548599834499697
sS'bigger'
p1654
F5.241747015059643
sS'desperately'
p1655
F5.241747015059643
sS'stopper'
p1656
F5.241747015059643
sS'fulls'
p1657
F5.241747015059643
sS'pregnant'
p1658
F5.241747015059643
sS'occasions'
p1659
F5.241747015059643
sS'harbor'
p1660
F4.548599834499697
sS'goofy'
p1661
F5.241747015059643
sS'stopped'
p1662
F4.548599834499697
sS'turns'
p1663
F5.241747015059643
sS'found'
p1664
F2.6026896854443837
sS'hammering'
p1665
F5.241747015059643
sS'biscuits'
p1666
F5.241747015059643
sS'disorganized'
p1667
F5.241747015059643
sS'heavy'
p1668
F5.241747015059643
sS'everyone'
p1669
F4.143134726391533
sS'england'
p1670
F5.241747015059643
sS'another'
p1671
F2.843851742261272
sS'needless'
p1672
F3.855452653939752
sS'house'
p1673
F3.449987545831587
sS'energy'
p1674
F5.241747015059643
sS'hard'
p1675
F3.855452653939752
sS'idea'
p1676
F4.143134726391533
sS'brother'
p1677
F4.548599834499697
sS'exorbitant'
p1678
F5.241747015059643
sS'connect'
p1679
F5.241747015059643
sS'ironing'
p1680
F5.241747015059643
sS'hanging'
p1681
F4.548599834499697
sS'portland'
p1682
F5.241747015059643
sS'beyond'
p1683
F4.548599834499697
sS'event'
p1684
F4.548599834499697
sS'really'
p1685
F2.063693184711697
sS'travels'
p1686
F4.548599834499697
sS'lovers'
p1687
F5.241747015059643
sS'missed'
p1688
F5.241747015059643
sS'linens'
p1689
F4.143134726391533
sS'surrounded'
p1690
F4.548599834499697
sS'pigeon'
p1691
F5.241747015059643
sS'douglas'
p1692
F5.241747015059643
sS'research'
p1693
F5.241747015059643
sS'safety'
p1694
F4.548599834499697
sS'flowed'
p1695
F5.241747015059643
sS'paradise'
p1696
F5.241747015059643
sS'denoted'
p1697
F5.241747015059643
sS'hangers'
p1698
F5.241747015059643
sS'issue'
p1699
F4.143134726391533
sS'highway'
p1700
F4.143134726391533
sS'tenerloin'
p1701
F5.241747015059643
sS'housed'
p1702
F5.241747015059643
sS'dirt'
p1703
F5.241747015059643
sS'story'
p1704
F4.548599834499697
sS'pleasant'
p1705
F3.044522437723423
sS'houses'
p1706
F5.241747015059643
sS'reason'
p1707
F4.548599834499697
sS'unsightly'
p1708
F5.241747015059643
sS'conditioning'
p1709
F4.548599834499697
sS'dire'
p1710
F5.241747015059643
sS'imagine'
p1711
F4.143134726391533
sS'put'
p1712
F3.632309102625542
sS'equipped'
p1713
F4.548599834499697
sS'attendant'
p1714
F5.241747015059643
sS'bumped'
p1715
F5.241747015059643
sS'owners'
p1716
F4.548599834499697
sS'benefits'
p1717
F5.241747015059643
sS'mascone'
p1718
F5.241747015059643
sS'running'
p1719
F4.143134726391533
sS'lotions'
p1720
F5.241747015059643
sS'terribly'
p1721
F4.548599834499697
sS'audacity'
p1722
F5.241747015059643
sS'expecting'
p1723
F5.241747015059643
sS'hotelier'
p1724
F5.241747015059643
sS'w'
p1725
F4.548599834499697
sS'rainforest'
p1726
F4.548599834499697
sS'castle'
p1727
F4.548599834499697
sS'major'
p1728
F3.449987545831587
sS'slipped'
p1729
F5.241747015059643
sS'feel'
p1730
F2.469158292819861
sS'mistakenly'
p1731
F5.241747015059643
sS'knocking'
p1732
F4.548599834499697
sS'number'
p1733
F5.241747015059643
sS'traveled'
p1734
F5.241747015059643
sS'feet'
p1735
F5.241747015059643
sS'done'
p1736
F4.143134726391533
sS'defects'
p1737
F5.241747015059643
sS'fees'
p1738
F4.548599834499697
sS'bland'
p1739
F5.241747015059643
sS'traveler'
p1740
F4.143134726391533
sS'cups'
p1741
F5.241747015059643
sS'soaps'
p1742
F5.241747015059643
sS'koi'
p1743
F5.241747015059643
sS'guess'
p1744
F5.241747015059643
sS'heads'
p1745
F5.241747015059643
sS'guest'
p1746
F3.1623054733798064
sS'benedict'
p1747
F5.241747015059643
sS'comfy'
p1748
F4.548599834499697
sS'least'
p1749
F3.1623054733798064
sS'paint'
p1750
F4.548599834499697
sS'flimsy'
p1751
F5.241747015059643
sS'station'
p1752
F4.143134726391533
sS'passed'
p1753
F5.241747015059643
sS'store'
p1754
F4.143134726391533
sS'gps'
p1755
F5.241747015059643
sS'attendants'
p1756
F4.548599834499697
sS'warmly'
p1757
F4.548599834499697
sS'option'
p1758
F5.241747015059643
sS'behind'
p1759
F5.241747015059643
sS'wost'
p1760
F5.241747015059643
sS'park'
p1761
F3.295836866004329
sS'luckily'
p1762
F5.241747015059643
sS'part'
p1763
F2.9391619220655967
sS'believe'
p1764
F3.855452653939752
sS'tapestries'
p1765
F5.241747015059643
sS'king'
p1766
F3.449987545831587
sS'kind'
p1767
F4.548599834499697
sS'b'
p1768
F5.241747015059643
sS'squeaky'
p1769
F5.241747015059643
sS'disrespected'
p1770
F5.241747015059643
sS'getaway'
p1771
F3.855452653939752
sS'outrageous'
p1772
F5.241747015059643
sS'supposed'
p1773
F4.548599834499697
sS'garland'
p1774
F5.241747015059643
sS'stale'
p1775
F4.548599834499697
sS'treated'
p1776
F3.855452653939752
sS'risky'
p1777
F5.241747015059643
sS'mickey'
p1778
F5.241747015059643
sS'cleaner'
p1779
F5.241747015059643
sS'picked'
p1780
F3.855452653939752
sS'shpe'
p1781
F5.241747015059643
sS'well'
p1782
F2.106252799130493
sS'suspicious'
p1783
F5.241747015059643
sS'ages'
p1784
F5.241747015059643
sS'fireside'
p1785
F5.241747015059643
sS'juice'
p1786
F4.548599834499697
sS'alike'
p1787
F5.241747015059643
sS'showers'
p1788
F4.548599834499697
sS'cleaned'
p1789
F3.295836866004329
sS'horesback'
p1790
F5.241747015059643
sS'philly'
p1791
F4.548599834499697
sS'remodel'
p1792
F5.241747015059643
sS'mountain'
p1793
F5.241747015059643
sS'nights'
p1794
F2.843851742261272
sS'built'
p1795
F5.241747015059643
sS'eeeeeek'
p1796
F5.241747015059643
sS'superior'
p1797
F5.241747015059643
sS'self'
p1798
F4.548599834499697
sS'commotion'
p1799
F4.548599834499697
sS'couch'
p1800
F4.143134726391533
sS'spreadings'
p1801
F5.241747015059643
sS'also'
p1802
F1.3297240096314962
sS'without'
p1803
F3.295836866004329
sS'useless'
p1804
F5.241747015059643
sS'hanauma'
p1805
F5.241747015059643
sS'finding'
p1806
F5.241747015059643
sS'mose'
p1807
F5.241747015059643
sS'defintely'
p1808
F5.241747015059643
sS'play'
p1809
F3.449987545831587
sS'caliber'
p1810
F5.241747015059643
sS'components'
p1811
F5.241747015059643
sS'eggs'
p1812
F3.449987545831587
sS'inconvenience'
p1813
F5.241747015059643
sS'macy'
p1814
F5.241747015059643
sS'cigarette'
p1815
F5.241747015059643
sS'brooklyn'
p1816
F5.241747015059643
sS'experiences'
p1817
F4.143134726391533
sS'plan'
p1818
F3.449987545831587
sS'nothing'
p1819
F3.449987545831587
sS'extremely'
p1820
F2.6026896854443837
sS'refrigerator'
p1821
F5.241747015059643
sS'reward'
p1822
F5.241747015059643
sS'windows'
p1823
F3.855452653939752
sS'performances'
p1824
F5.241747015059643
sS'clear'
p1825
F3.855452653939752
sS'popularity'
p1826
F5.241747015059643
sS'huntley'
p1827
F5.241747015059643
sS'unreasonable'
p1828
F5.241747015059643
sS'cramped'
p1829
F5.241747015059643
sS'clean'
p1830
F1.349926716949016
sS'charged'
p1831
F5.241747015059643
sS'lysol'
p1832
F5.241747015059643
sS'golf'
p1833
F5.241747015059643
sS'somewhat'
p1834
F3.449987545831587
sS'stunned'
p1835
F5.241747015059643
sS'disappointed'
p1836
F3.632309102625542
sS'accommodations'
p1837
F3.449987545831587
sS'botique'
p1838
F5.241747015059643
sS'fine'
p1839
F3.855452653939752
sS'find'
p1840
F2.2460147415056513
sS'quest'
p1841
F5.241747015059643
sS'access'
p1842
F3.449987545831587
sS'giant'
p1843
F4.548599834499697
sS'etsy'
p1844
F5.241747015059643
sS'justice'
p1845
F5.241747015059643
sS'stairs'
p1846
F3.855452653939752
sS'ruin'
p1847
F5.241747015059643
sS'less'
p1848
F3.855452653939752
sS'unhappy'
p1849
F5.241747015059643
sS'starters'
p1850
F5.241747015059643
sS'flights'
p1851
F5.241747015059643
sS'pretty'
p1852
F2.843851742261272
sS'knowledgeable'
p1853
F5.241747015059643
sS'circle'
p1854
F4.548599834499697
sS'columns'
p1855
F5.241747015059643
sS'therefore'
p1856
F5.241747015059643
sS'ste'
p1857
F5.241747015059643
sS'neon'
p1858
F5.241747015059643
sS'grocery'
p1859
F5.241747015059643
sS'cheaper'
p1860
F5.241747015059643
sS'famous'
p1861
F3.632309102625542
sS'feels'
p1862
F4.548599834499697
sS'preparing'
p1863
F5.241747015059643
sS'closely'
p1864
F5.241747015059643
sS'basement'
p1865
F5.241747015059643
sS'emails'
p1866
F5.241747015059643
sS'enemy'
p1867
F4.143134726391533
sS'glorified'
p1868
F5.241747015059643
sS'unenjoyable'
p1869
F5.241747015059643
sS'stroll'
p1870
F5.241747015059643
sS'remove'
p1871
F5.241747015059643
sS'common'
p1872
F4.548599834499697
sS'retouched'
p1873
F5.241747015059643
sS'double'
p1874
F5.241747015059643
sS'hype'
p1875
F5.241747015059643
sS'river'
p1876
F4.548599834499697
sS'courteous'
p1877
F4.143134726391533
sS'enhanced'
p1878
F5.241747015059643
sS'restaurants'
p1879
F2.533696813957432
sS'manger'
p1880
F5.241747015059643
sS'bars'
p1881
F4.548599834499697
sS'set'
p1882
F4.548599834499697
sS'art'
p1883
F4.548599834499697
sS'sex'
p1884
F5.241747015059643
sS'culture'
p1885
F4.548599834499697
sS'see'
p1886
F3.295836866004329
sS'bare'
p1887
F5.241747015059643
sS'close'
p1888
F3.044522437723423
sS'wyndham'
p1889
F5.241747015059643
sS'freindly'
p1890
F5.241747015059643
sS'visiting'
p1891
F2.533696813957432
sS'pictures'
p1892
F4.143134726391533
sS'please'
p1893
F5.241747015059643
sS'case'
p1894
F5.241747015059643
sS'various'
p1895
F4.143134726391533
sS'probably'
p1896
F3.632309102625542
sS'champagne'
p1897
F4.548599834499697
sS'conditions'
p1898
F4.548599834499697
sS'available'
p1899
F2.676797657598106
sS'recently'
p1900
F2.676797657598106
sS'historical'
p1901
F4.548599834499697
sS'missing'
p1902
F4.548599834499697
sS'premises'
p1903
F5.241747015059643
sS'sold'
p1904
F4.548599834499697
sS'attention'
p1905
F4.143134726391533
sS'spray'
p1906
F5.241747015059643
sS'premise'
p1907
F5.241747015059643
sS'shared'
p1908
F5.241747015059643
sS'folding'
p1909
F5.241747015059643
sS'attleboro'
p1910
F5.241747015059643
sS'restaurant'
p1911
F2.2460147415056513
sS'fiance'
p1912
F5.241747015059643
sS'luxorious'
p1913
F5.241747015059643
sS'barely'
p1914
F3.449987545831587
sS'connection'
p1915
F4.143134726391533
sS'became'
p1916
F4.143134726391533
sS'let'
p1917
F3.632309102625542
sS'whole'
p1918
F3.855452653939752
sS'baltimore'
p1919
F5.241747015059643
sS'upgraded'
p1920
F4.143134726391533
sS'liked'
p1921
F3.632309102625542
sS'luxurious'
p1922
F4.143134726391533
sS'bridge'
p1923
F5.241747015059643
sS'simple'
p1924
F3.855452653939752
sS'sky'
p1925
F5.241747015059643
sS'others'
p1926
F4.548599834499697
sS'storybook'
p1927
F5.241747015059643
sS'simply'
p1928
F3.449987545831587
sS'frosty'
p1929
F5.241747015059643
sS'carnivalthe'
p1930
F5.241747015059643
sS'throughout'
p1931
F3.855452653939752
sS'expensive'
p1932
F5.241747015059643
sS'finally'
p1933
F3.1623054733798064
sS'filth'
p1934
F5.241747015059643
sS'due'
p1935
F3.1623054733798064
sS'hitting'
p1936
F5.241747015059643
sS'refrigerators'
p1937
F5.241747015059643
sS'secret'
p1938
F5.241747015059643
sS'pa'
p1939
F5.241747015059643
sS'maintenance'
p1940
F4.548599834499697
sS'meeting'
p1941
F5.241747015059643
sS'woke'
p1942
F4.548599834499697
sS'pm'
p1943
F5.241747015059643
sS'firm'
p1944
F4.548599834499697
sS'lived'
p1945
F5.241747015059643
sS'flight'
p1946
F5.241747015059643
sS'packs'
p1947
F5.241747015059643
sS'fire'
p1948
F5.241747015059643
sS'sfmoma'
p1949
F5.241747015059643
sS'gas'
p1950
F4.548599834499697
sS'else'
p1951
F3.855452653939752
sS'pricey'
p1952
F5.241747015059643
sS'representative'
p1953
F5.241747015059643
sS'prices'
p1954
F3.449987545831587
sS'despite'
p1955
F4.143134726391533
sS'plants'
p1956
F4.143134726391533
sS'georgia'
p1957
F4.143134726391533
sS'soiled'
p1958
F5.241747015059643
sS'look'
p1959
F3.295836866004329
sS'frozen'
p1960
F5.241747015059643
sS'tip'
p1961
F5.241747015059643
sS'budget'
p1962
F4.143134726391533
sS'replaced'
p1963
F4.548599834499697
sS'fun'
p1964
F3.449987545831587
sS'guide'
p1965
F5.241747015059643
sS'melia'
p1966
F5.241747015059643
sS'overseen'
p1967
F5.241747015059643
sS'hoping'
p1968
F5.241747015059643
sS'overlooked'
p1969
F5.241747015059643
sS'disappointing'
p1970
F5.241747015059643
sS'rio'
p1971
F4.548599834499697
sS'shimbashi'
p1972
F5.241747015059643
sS'triple'
p1973
F5.241747015059643
sS'beautifully'
p1974
F4.548599834499697
sS'ready'
p1975
F3.044522437723423
sS'rid'
p1976
F4.143134726391533
sS'funny'
p1977
F5.241747015059643
sS'decor'
p1978
F2.676797657598106
sS'stunk'
p1979
F5.241747015059643
sS'anymore'
p1980
F5.241747015059643
sS'maids'
p1981
F5.241747015059643
sS'makeshift'
p1982
F5.241747015059643
sS'virtually'
p1983
F5.241747015059643
sS'grand'
p1984
F4.548599834499697
sS'itchy'
p1985
F5.241747015059643
sS'daughters'
p1986
F5.241747015059643
sS'higher'
p1987
F5.241747015059643
sS'hallway'
p1988
F3.855452653939752
sS'used'
p1989
F4.143134726391533
sS'displeased'
p1990
F5.241747015059643
sS'suggestion'
p1991
F5.241747015059643
sS'somewhere'
p1992
F3.632309102625542
sS'keys'
p1993
F3.855452653939752
sS'layovers'
p1994
F5.241747015059643
sS'holidays'
p1995
F4.548599834499697
sS'popcorn'
p1996
F5.241747015059643
sS'moment'
p1997
F3.632309102625542
sS'levels'
p1998
F5.241747015059643
sS'moving'
p1999
F5.241747015059643
sS'purpose'
p2000
F5.241747015059643
sS'staycation'
p2001
F5.241747015059643
sS'plugs'
p2002
F5.241747015059643
sS'sandals'
p2003
F5.241747015059643
sS'weird'
p2004
F5.241747015059643
sS'recent'
p2005
F3.855452653939752
sS'early'
p2006
F4.143134726391533
sS'picky'
p2007
F5.241747015059643
sS'crisp'
p2008
F4.548599834499697
sS'docked'
p2009
F5.241747015059643
sS'anybody'
p2010
F5.241747015059643
sS'maker'
p2011
F5.241747015059643
sS'person'
p2012
F3.295836866004329
sS'royalty'
p2013
F5.241747015059643
sS'auditor'
p2014
F5.241747015059643
sS'thoroughly'
p2015
F5.241747015059643
sS'spend'
p2016
F3.044522437723423
sS'grossly'
p2017
F5.241747015059643
sS'ambassador'
p2018
F5.241747015059643
sS'listening'
p2019
F5.241747015059643
sS'desk'
p2020
F1.9459101490553132
sS'removed'
p2021
F5.241747015059643
sS'aliante'
p2022
F5.241747015059643
sS'rumbling'
p2023
F5.241747015059643
sS'questions'
p2024
F4.143134726391533
sS'using'
p2025
F3.855452653939752
sS'rundown'
p2026
F5.241747015059643
sS'lit'
p2027
F5.241747015059643
sS'cut'
p2028
F5.241747015059643
sS'bellhop'
p2029
F5.241747015059643
sS'blankets'
p2030
F5.241747015059643
sS'workers'
p2031
F5.241747015059643
sS'fitting'
p2032
F5.241747015059643
sS'exclusively'
p2033
F5.241747015059643
sS'rear'
p2034
F5.241747015059643
sS'excited'
p2035
F4.548599834499697
sS'surprised'
p2036
F5.241747015059643
sS'complaint'
p2037
F4.548599834499697
sS'lacking'
p2038
F4.548599834499697
sS'audibly'
p2039
F5.241747015059643
sS'big'
p2040
F2.9391619220655967
sS'couple'
p2041
F3.449987545831587
sS'emanating'
p2042
F5.241747015059643
sS'matters'
p2043
F4.548599834499697
sS'game'
p2044
F4.143134726391533
sS'drwaback'
p2045
F5.241747015059643
sS'vending'
p2046
F5.241747015059643
sS'bit'
p2047
F3.632309102625542
sS'sharpened'
p2048
F5.241747015059643
sS'moody'
p2049
F5.241747015059643
sS'knock'
p2050
F4.548599834499697
sS'disrepair'
p2051
F5.241747015059643
sS'seperate'
p2052
F5.241747015059643
sS'lost'
p2053
F4.548599834499697
sS'semi'
p2054
F5.241747015059643
sS'shaped'
p2055
F5.241747015059643
sS'ignore'
p2056
F5.241747015059643
sS'individuals'
p2057
F5.241747015059643
sS'barly'
p2058
F5.241747015059643
sS'popular'
p2059
F4.143134726391533
sS'stylish'
p2060
F4.548599834499697
sS'brunch'
p2061
F5.241747015059643
sS'unhindered'
p2062
F5.241747015059643
sS'google'
p2063
F5.241747015059643
sS'partying'
p2064
F5.241747015059643
sS'often'
p2065
F3.632309102625542
sS'sheraton'
p2066
F5.241747015059643
sS'spring'
p2067
F4.548599834499697
sS'back'
p2068
F1.9459101490553132
sS'added'
p2069
F3.855452653939752
sS'palm'
p2070
F5.241747015059643
sS'pricing'
p2071
F5.241747015059643
sS'sight'
p2072
F4.548599834499697
sS'mirror'
p2073
F4.548599834499697
sS'trendy'
p2074
F4.548599834499697
sS'server'
p2075
F5.241747015059643
sS'delivered'
p2076
F4.143134726391533
sS'jewelry'
p2077
F5.241747015059643
sS'pet'
p2078
F5.241747015059643
sS'decision'
p2079
F4.548599834499697
sS'firecracker'
p2080
F5.241747015059643
sS'per'
p2081
F3.632309102625542
sS'bellagio'
p2082
F5.241747015059643
sS'minimal'
p2083
F5.241747015059643
sS'run'
p2084
F3.855452653939752
sS'odor'
p2085
F3.855452653939752
sS'offenders'
p2086
F5.241747015059643
sS'refused'
p2087
F5.241747015059643
sS'overnights'
p2088
F5.241747015059643
sS'santa'
p2089
F5.241747015059643
sS'cannons'
p2090
F5.241747015059643
sS'substandard'
p2091
F5.241747015059643
sS'housekeeping'
p2092
F3.449987545831587
sS'wouldnt'
p2093
F4.548599834499697
sS'exaggerated'
p2094
F5.241747015059643
sS'kitchenette'
p2095
F4.548599834499697
sS'plaza'
p2096
F4.143134726391533
sS'melbourne'
p2097
F5.241747015059643
sS'range'
p2098
F5.241747015059643
sS'greets'
p2099
F5.241747015059643
sS'charm'
p2100
F4.548599834499697
sS'complimentary'
p2101
F3.449987545831587
sS'shiny'
p2102
F5.241747015059643
sS'block'
p2103
F5.241747015059643
sS'ppl'
p2104
F5.241747015059643
sS'seeing'
p2105
F5.241747015059643
sS'jimmy'
p2106
F5.241747015059643
sS'colorado'
p2107
F4.548599834499697
sS'garbage'
p2108
F4.548599834499697
sS'within'
p2109
F2.843851742261272
sS'services'
p2110
F4.548599834499697
sS'primarily'
p2111
F5.241747015059643
sS'kailua'
p2112
F5.241747015059643
sS'sports'
p2113
F5.241747015059643
sS'smells'
p2114
F4.548599834499697
sS'sightseeing'
p2115
F5.241747015059643
sS'impressed'
p2116
F3.855452653939752
sS'arcade'
p2117
F5.241747015059643
sS'spending'
p2118
F5.241747015059643
sS'handles'
p2119
F5.241747015059643
sS'long'
p2120
F3.449987545831587
sS'tsukiji'
p2121
F5.241747015059643
sS'summertime'
p2122
F5.241747015059643
sS'forward'
p2123
F5.241747015059643
sS'mountains'
p2124
F5.241747015059643
sS'elsewhere'
p2125
F5.241747015059643
sS'hawaiian'
p2126
F5.241747015059643
sS'relaxed'
p2127
F4.548599834499697
sS'boys'
p2128
F4.548599834499697
sS'properly'
p2129
F4.143134726391533
sS'line'
p2130
F4.143134726391533
sS'pain'
p2131
F5.241747015059643
sS'dull'
p2132
F5.241747015059643
sS'permissable'
p2133
F5.241747015059643
sS'directed'
p2134
F4.548599834499697
sS'vacancies'
p2135
F5.241747015059643
sS'us'
p2136
F1.6582280766035324
sS'exploration'
p2137
F5.241747015059643
sS'faded'
p2138
F5.241747015059643
sS'highlight'
p2139
F5.241747015059643
sS'similar'
p2140
F5.241747015059643
sS'called'
p2141
F3.044522437723423
sS'bell'
p2142
F5.241747015059643
sS'curt'
p2143
F5.241747015059643
sS'sometimes'
p2144
F5.241747015059643
sS'discolored'
p2145
F5.241747015059643
sS'adults'
p2146
F3.855452653939752
sS'steeped'
p2147
F5.241747015059643
sS'warning'
p2148
F5.241747015059643
sS'evening'
p2149
F4.548599834499697
sS'chat'
p2150
F5.241747015059643
sS'cafe'
p2151
F5.241747015059643
sS'empire'
p2152
F5.241747015059643
sS'lemon'
p2153
F5.241747015059643
sS'reputation'
p2154
F5.241747015059643
sS'electrical'
p2155
F5.241747015059643
sS'nice'
p2156
F1.6863989535702288
sS'smiles'
p2157
F5.241747015059643
sS'scrub'
p2158
F5.241747015059643
sS'users'
p2159
F5.241747015059643
sS'gross'
p2160
F4.143134726391533
sS'reservation'
p2161
F3.449987545831587
sS'problems'
p2162
F5.241747015059643
sS'visits'
p2163
F5.241747015059643
sS'prepared'
p2164
F4.548599834499697
sS'helping'
p2165
F4.548599834499697
sS'allowing'
p2166
F5.241747015059643
sS'drab'
p2167
F4.143134726391533
sS'housekeepers'
p2168
F4.548599834499697
sS'futon'
p2169
F5.241747015059643
sS'meals'
p2170
F3.855452653939752
sS'freeways'
p2171
F4.548599834499697
sS'ago'
p2172
F4.143134726391533
sS'coincided'
p2173
F4.548599834499697
sS'e'
p2174
F5.241747015059643
sS'overlooking'
p2175
F3.855452653939752
sS'practically'
p2176
F4.548599834499697
sS'valuables'
p2177
F5.241747015059643
sS'age'
p2178
F5.241747015059643
sS'required'
p2179
F4.548599834499697
sS'walked'
p2180
F3.295836866004329
sS'annoyed'
p2181
F4.548599834499697
sS'cooked'
p2182
F5.241747015059643
sS'train'
p2183
F4.548599834499697
sS'lafayette'
p2184
F4.548599834499697
sS'dot'
p2185
F5.241747015059643
sS'literally'
p2186
F4.143134726391533
sS'everywhere'
p2187
F2.843851742261272
sS'buffalo'
p2188
F5.241747015059643
sS'sounded'
p2189
F4.548599834499697
sS'hampton'
p2190
F4.548599834499697
sS'code'
p2191
F4.548599834499697
sS'partial'
p2192
F5.241747015059643
sS'enjoyable'
p2193
F3.855452653939752
sS'brochure'
p2194
F5.241747015059643
sS'windy'
p2195
F5.241747015059643
sS'ga'
p2196
F4.548599834499697
sS'intricate'
p2197
F5.241747015059643
sS'issues'
p2198
F5.241747015059643
sS'seemed'
p2199
F3.044522437723423
sS'peanut'
p2200
F5.241747015059643
sS'wizard'
p2201
F5.241747015059643
sS'young'
p2202
F3.632309102625542
sS'send'
p2203
F4.548599834499697
sS'suits'
p2204
F4.548599834499697
sS'ambience'
p2205
F5.241747015059643
sS'suite'
p2206
F3.1623054733798064
sS'include'
p2207
F5.241747015059643
sS'friendly'
p2208
F1.9459101490553132
sS'sent'
p2209
F4.548599834499697
sS'starbursts'
p2210
F5.241747015059643
sS'stocked'
p2211
F4.548599834499697
sS'random'
p2212
F4.548599834499697
sS'dessert'
p2213
F4.548599834499697
sS'bedrooms'
p2214
F5.241747015059643
sS'pleasent'
p2215
F5.241747015059643
sS'putting'
p2216
F5.241747015059643
sS'drinking'
p2217
F5.241747015059643
sS'roaches'
p2218
F4.548599834499697
sS'edible'
p2219
F5.241747015059643
sS'entire'
p2220
F2.9391619220655967
sS'respectful'
p2221
F4.548599834499697
sS'transmission'
p2222
F5.241747015059643
sS'try'
p2223
F5.241747015059643
sS'race'
p2224
F5.241747015059643
sS'alltime'
p2225
F5.241747015059643
sS'friendliness'
p2226
F5.241747015059643
sS'noted'
p2227
F5.241747015059643
sS'unsatisfied'
p2228
F5.241747015059643
sS'slow'
p2229
F4.143134726391533
sS'smaller'
p2230
F5.241747015059643
sS'frigid'
p2231
F5.241747015059643
sS'noise'
p2232
F3.632309102625542
sS'traveling'
p2233
F3.632309102625542
sS'uncomfortable'
p2234
F3.295836866004329
sS'reunion'
p2235
F5.241747015059643
sS'odd'
p2236
F5.241747015059643
sS'makers'
p2237
F5.241747015059643
sS'folk'
p2238
F5.241747015059643
sS'graduating'
p2239
F5.241747015059643
sS'sausage'
p2240
F5.241747015059643
sS'poke'
p2241
F5.241747015059643
sS'paintings'
p2242
F4.548599834499697
sS'giving'
p2243
F5.241747015059643
sS'asap'
p2244
F5.241747015059643
sS'paddle'
p2245
F5.241747015059643
sS'valet'
p2246
F4.143134726391533
sS'cell'
p2247
F5.241747015059643
sS'paying'
p2248
F3.632309102625542
sS'waiting'
p2249
F3.855452653939752
sS'indian'
p2250
F4.548599834499697
sS'twins'
p2251
F5.241747015059643
sS'flowing'
p2252
F5.241747015059643
sS'pristine'
p2253
F5.241747015059643
sS'nails'
p2254
F5.241747015059643
sS'refilled'
p2255
F4.548599834499697
sS'body'
p2256
F4.143134726391533
sS'led'
p2257
F5.241747015059643
sS'chose'
p2258
F4.548599834499697
sS'leg'
p2259
F5.241747015059643
sS'apologetic'
p2260
F5.241747015059643
sS'commercial'
p2261
F5.241747015059643
sS'delivering'
p2262
F4.548599834499697
sS'desired'
p2263
F5.241747015059643
sS'objects'
p2264
F4.548599834499697
sS'focused'
p2265
F5.241747015059643
sS'sink'
p2266
F4.143134726391533
sS'pancake'
p2267
F5.241747015059643
sS'ferry'
p2268
F5.241747015059643
sS'consideration'
p2269
F5.241747015059643
sS'safer'
p2270
F5.241747015059643
sS'vinegar'
p2271
F5.241747015059643
sS'great'
p2272
F1.3099213823353166
sS'arrive'
p2273
F4.548599834499697
sS'metro'
p2274
F5.241747015059643
sS'uneasy'
p2275
F5.241747015059643
sS'receive'
p2276
F3.855452653939752
sS'involved'
p2277
F5.241747015059643
sS'casino'
p2278
F3.295836866004329
sS'shades'
p2279
F5.241747015059643
sS'haunts'
p2280
F5.241747015059643
sS'leaving'
p2281
F4.548599834499697
sS'whisking'
p2282
F5.241747015059643
sS'products'
p2283
F4.548599834499697
sS'armpit'
p2284
F5.241747015059643
sS'existent'
p2285
F5.241747015059643
sS'opinion'
p2286
F4.548599834499697
sS'residents'
p2287
F5.241747015059643
sS'makes'
p2288
F3.632309102625542
sS'snobby'
p2289
F5.241747015059643
sS'nearest'
p2290
F4.548599834499697
sS'private'
p2291
F5.241747015059643
sS'motor'
p2292
F5.241747015059643
sS'duck'
p2293
F5.241747015059643
sS'reserved'
p2294
F3.855452653939752
sS'boasts'
p2295
F4.143134726391533
sS'gateway'
p2296
F5.241747015059643
sS'standing'
p2297
F3.855452653939752
sS'use'
p2298
F4.143134726391533
sS'fee'
p2299
F4.548599834499697
sS'iced'
p2300
F5.241747015059643
sS'illegal'
p2301
F5.241747015059643
sS'snacks'
p2302
F4.548599834499697
sS'amidst'
p2303
F5.241747015059643
sS'next'
p2304
F2.1507045617013265
sS'doubt'
p2305
F5.241747015059643
sS'vehicle'
p2306
F5.241747015059643
sS'panel'
p2307
F5.241747015059643
sS'grandest'
p2308
F5.241747015059643
sS'snobbish'
p2309
F5.241747015059643
sS'started'
p2310
F3.855452653939752
sS'tennis'
p2311
F5.241747015059643
sS'carvings'
p2312
F5.241747015059643
sS'astoria'
p2313
F5.241747015059643
sS'charming'
p2314
F5.241747015059643
sS'folks'
p2315
F5.241747015059643
sS'carrying'
p2316
F5.241747015059643
sS'agent'
p2317
F5.241747015059643
sS'baby'
p2318
F5.241747015059643
sS'gladly'
p2319
F5.241747015059643
sS'appointed'
p2320
F3.855452653939752
sS'customer'
p2321
F3.1623054733798064
sS'aulani'
p2322
F5.241747015059643
sS'animals'
p2323
F5.241747015059643
sS'salad'
p2324
F5.241747015059643
sS'locks'
p2325
F5.241747015059643
sS'ride'
p2326
F5.241747015059643
sS'oh'
p2327
F5.241747015059643
sS'creepy'
p2328
F5.241747015059643
sS'anywhere'
p2329
F4.143134726391533
sS'obvious'
p2330
F4.143134726391533
sS'thin'
p2331
F3.632309102625542
sS'meet'
p2332
F5.241747015059643
sS'drops'
p2333
F5.241747015059643
sS'didnt'
p2334
F5.241747015059643
sS'ants'
p2335
F5.241747015059643
sS'something'
p2336
F2.9391619220655967
sS'overall'
p2337
F2.469158292819861
sS'wharf'
p2338
F5.241747015059643
sS'tap'
p2339
F5.241747015059643
sS'plate'
p2340
F5.241747015059643
sS'lock'
p2341
F5.241747015059643
sS'dripping'
p2342
F5.241747015059643
sS'high'
p2343
F2.843851742261272
sS'pulling'
p2344
F5.241747015059643
sS'blaine'
p2345
F5.241747015059643
sS'tab'
p2346
F5.241747015059643
sS'chic'
p2347
F5.241747015059643
sS'wonderful'
p2348
F3.044522437723423
sS'shrimp'
p2349
F5.241747015059643
sS'hesitate'
p2350
F4.548599834499697
sS'stellar'
p2351
F5.241747015059643
sS'sit'
p2352
F4.143134726391533
sS'vibe'
p2353
F5.241747015059643
sS'mo'
p2354
F5.241747015059643
sS'six'
p2355
F5.241747015059643
sS'fortunate'
p2356
F5.241747015059643
sS'delay'
p2357
F5.241747015059643
sS'located'
p2358
F2.297308035893202
sS'lamp'
p2359
F5.241747015059643
sS'brownstone'
p2360
F5.241747015059643
sS'establishment'
p2361
F4.548599834499697
sS'stock'
p2362
F4.548599834499697
sS'blocks'
p2363
F3.295836866004329
sS'luxuriously'
p2364
F5.241747015059643
sS'stop'
p2365
F3.855452653939752
sS'bothered'
p2366
F5.241747015059643
sS'belongings'
p2367
F4.548599834499697
sS'stank'
p2368
F5.241747015059643
sS'realized'
p2369
F4.548599834499697
sS'light'
p2370
F4.548599834499697
sS'counter'
p2371
F4.548599834499697
sS'lines'
p2372
F4.548599834499697
sS'interrupted'
p2373
F5.241747015059643
sS'honestly'
p2374
F5.241747015059643
sS'villas'
p2375
F5.241747015059643
sS'allow'
p2376
F4.548599834499697
sS'crawling'
p2377
F4.143134726391533
sS'pastries'
p2378
F3.855452653939752
sS'unmade'
p2379
F5.241747015059643
sS'galveston'
p2380
F5.241747015059643
sS'houston'
p2381
F5.241747015059643
sS'areas'
p2382
F3.295836866004329
sS'wedding'
p2383
F4.143134726391533
sS'harajuku'
p2384
F5.241747015059643
sS'including'
p2385
F3.632309102625542
sS'looks'
p2386
F5.241747015059643
sS'belltown'
p2387
F5.241747015059643
sS'nasty'
p2388
F5.241747015059643
sS'bunch'
p2389
F5.241747015059643
sS'beachcomber'
p2390
F5.241747015059643
sS'write'
p2391
F4.548599834499697
sS'le'
p2392
F5.241747015059643
sS'la'
p2393
F3.855452653939752
sS'chosen'
p2394
F5.241747015059643
sS'rectify'
p2395
F5.241747015059643
sS'acres'
p2396
F5.241747015059643
sS'degrees'
p2397
F5.241747015059643
sS'choose'
p2398
F4.143134726391533
sS'puerto'
p2399
F5.241747015059643
sS'retrieval'
p2400
F5.241747015059643
sS'crowds'
p2401
F5.241747015059643
sS'junction'
p2402
F5.241747015059643
sS'fourth'
p2403
F4.548599834499697
sS'dam'
p2404
F5.241747015059643
sS'cover'
p2405
F4.548599834499697
sS'mediocre'
p2406
F4.143134726391533
sS'detergents'
p2407
F5.241747015059643
sS'cutting'
p2408
F5.241747015059643
sS'instead'
p2409
F4.548599834499697
sS'front'
p2410
F1.9836504770381602
sS'cage'
p2411
F5.241747015059643
sS'realize'
p2412
F5.241747015059643
sS'scenic'
p2413
F5.241747015059643
sS'university'
p2414
F5.241747015059643
sS'slipping'
p2415
F5.241747015059643
sS'shortage'
p2416
F5.241747015059643
sS'pools'
p2417
F3.295836866004329
sS'pint'
p2418
F5.241747015059643
sS'tray'
p2419
F5.241747015059643
sS'experienced'
p2420
F5.241747015059643
sS'glasses'
p2421
F5.241747015059643
sS'ratings'
p2422
F5.241747015059643
sS'showering'
p2423
F5.241747015059643
sS'heated'
p2424
F4.143134726391533
sS'ambiance'
p2425
F4.143134726391533
sS'books'
p2426
F5.241747015059643
sS'variety'
p2427
F4.143134726391533
sS'exceeded'
p2428
F4.548599834499697
sS'sexual'
p2429
F5.241747015059643
sS'special'
p2430
F4.143134726391533
sS'cocktail'
p2431
F5.241747015059643
sS'lukewarm'
p2432
F5.241747015059643
sS'entertainment'
p2433
F4.548599834499697
sS'desert'
p2434
F5.241747015059643
sS'keepsake'
p2435
F5.241747015059643
sS'extenders'
p2436
F5.241747015059643
sS'upset'
p2437
F5.241747015059643
sS'superbly'
p2438
F5.241747015059643
sS'peeling'
p2439
F4.143134726391533
sS'electronics'
p2440
F5.241747015059643
sS'cause'
p2441
F5.241747015059643
sS'snorkling'
p2442
F5.241747015059643
sS'shut'
p2443
F5.241747015059643
sS'approached'
p2444
F4.548599834499697
sS'recommendations'
p2445
F5.241747015059643
sS'bedbugs'
p2446
F4.548599834499697
sS'embassy'
p2447
F4.548599834499697
sS'attending'
p2448
F5.241747015059643
sS'completely'
p2449
F4.143134726391533
sS'york'
p2450
F4.548599834499697
sS'sitting'
p2451
F4.143134726391533
sS'scary'
p2452
F5.241747015059643
sS'steak'
p2453
F4.548599834499697
sS'could'
p2454
F1.5281749483553344
sS'florida'
p2455
F3.449987545831587
sS'times'
p2456
F2.533696813957432
sS'manicured'
p2457
F5.241747015059643
sS'biting'
p2458
F5.241747015059643
sS'secretary'
p2459
F5.241747015059643
sS'south'
p2460
F4.143134726391533
sS'rudely'
p2461
F5.241747015059643
sS'scene'
p2462
F5.241747015059643
sS'date'
p2463
F5.241747015059643
sS'owner'
p2464
F5.241747015059643
sS'inns'
p2465
F5.241747015059643
sS'quality'
p2466
F2.9391619220655967
sS'destinations'
p2467
F5.241747015059643
sS'continental'
p2468
F2.9391619220655967
sS'management'
p2469
F4.143134726391533
sS'bonus'
p2470
F4.143134726391533
sS'fair'
p2471
F4.143134726391533
sS'privacy'
p2472
F5.241747015059643
sS'ordering'
p2473
F5.241747015059643
sS'filthy'
p2474
F3.632309102625542
sS'establishments'
p2475
F4.548599834499697
sS'renovation'
p2476
F4.548599834499697
sS'priority'
p2477
F5.241747015059643
sS'slide'
p2478
F5.241747015059643
sS'perfectly'
p2479
F4.548599834499697
sS'dents'
p2480
F5.241747015059643
sS'lot'
p2481
F2.9391619220655967
sS'difficult'
p2482
F4.548599834499697
sS'exactly'
p2483
F5.241747015059643
sS'dreary'
p2484
F5.241747015059643
sS'slides'
p2485
F3.855452653939752
sS'july'
p2486
F4.548599834499697
sS'haven'
p2487
F5.241747015059643
sS'remember'
p2488
F4.548599834499697
sS'twon'
p2489
F5.241747015059643
sS'loved'
p2490
F2.843851742261272
sS'confortable'
p2491
F5.241747015059643
sS'furnishings'
p2492
F4.548599834499697
sS'lion'
p2493
F5.241747015059643
sS'bed'
p2494
F1.5781853689299958
sS'claim'
p2495
F5.241747015059643
sS'rack'
p2496
F5.241747015059643
sS'maybe'
p2497
F4.548599834499697
sS'visited'
p2498
F4.143134726391533
sS'drunk'
p2499
F4.548599834499697
sS'comfortable'
p2500
F1.807759810574496
sS'comfortably'
p2501
F5.241747015059643
sS'receptionist'
p2502
F4.548599834499697
sS'need'
p2503
F2.469158292819861
sS'turn'
p2504
F4.143134726391533
sS'apparently'
p2505
F4.548599834499697
sS'clearly'
p2506
F5.241747015059643
sS'necessities'
p2507
F5.241747015059643
sS'documents'
p2508
F5.241747015059643
sS'venturing'
p2509
F5.241747015059643
sS'dishes'
p2510
F4.143134726391533
sS'dallas'
p2511
F5.241747015059643
sS'marais'
p2512
F5.241747015059643
sS'able'
p2513
F2.843851742261272
sS'mid'
p2514
F4.548599834499697
sS'parks'
p2515
F4.143134726391533
sS'waffles'
p2516
F3.855452653939752
sS'mix'
p2517
F5.241747015059643
sS'baseboards'
p2518
F5.241747015059643
sS'concerns'
p2519
F5.241747015059643
sS'bus'
p2520
F3.855452653939752
sS'truck'
p2521
F5.241747015059643
sS'soap'
p2522
F4.548599834499697
sS'unless'
p2523
F5.241747015059643
sS'snacking'
p2524
F5.241747015059643
sS'connected'
p2525
F5.241747015059643
sS'manoa'
p2526
F5.241747015059643
sS'class'
p2527
F4.548599834499697
sS'ao'
p2528
F5.241747015059643
sS'landscaping'
p2529
F5.241747015059643
sS'absolutely'
p2530
F2.469158292819861
sS'stronger'
p2531
F5.241747015059643
sS'breeze'
p2532
F4.143134726391533
sS'waldorf'
p2533
F5.241747015059643
sS'scrambled'
p2534
F5.241747015059643
sS'strawberries'
p2535
F4.548599834499697
sS'movie'
p2536
F4.548599834499697
sS'normally'
p2537
F5.241747015059643
sS'fact'
p2538
F3.044522437723423
sS'impression'
p2539
F5.241747015059643
sS'atmosphere'
p2540
F2.9391619220655967
sS'selection'
p2541
F4.548599834499697
sS'kiddie'
p2542
F5.241747015059643
sS'agreed'
p2543
F5.241747015059643
sS'walkway'
p2544
F5.241747015059643
sS'anyway'
p2545
F4.548599834499697
sS'vacancy'
p2546
F4.548599834499697
sS'bring'
p2547
F4.143134726391533
sS'planning'
p2548
F5.241747015059643
sS'bedroom'
p2549
F5.241747015059643
sS'rough'
p2550
F5.241747015059643
sS'mice'
p2551
F5.241747015059643
sS'decade'
p2552
F5.241747015059643
sS'staff'
p2553
F1.0076405104623831
sS'highest'
p2554
F5.241747015059643
sS'grabbed'
p2555
F5.241747015059643
sS'operational'
p2556
F5.241747015059643
sS'creamer'
p2557
F5.241747015059643
sS'riding'
p2558
F4.548599834499697
sS'bourbon'
p2559
F5.241747015059643
sS'local'
p2560
F4.548599834499697
sS'voss'
p2561
F5.241747015059643
sS'finger'
p2562
F5.241747015059643
sS'meant'
p2563
F5.241747015059643
sS'move'
p2564
F4.548599834499697
sS'means'
p2565
F4.548599834499697
sS'beat'
p2566
F4.143134726391533
sS'mainly'
p2567
F5.241747015059643
sS'michigan'
p2568
F5.241747015059643
sS'unbeatable'
p2569
F5.241747015059643
sS'cranky'
p2570
F5.241747015059643
sS'lucky'
p2571
F5.241747015059643
sS'bear'
p2572
F5.241747015059643
sS'sipping'
p2573
F5.241747015059643
sS'ones'
p2574
F5.241747015059643
sS'bead'
p2575
F5.241747015059643
sS'spur'
p2576
F4.548599834499697
sS'endless'
p2577
F5.241747015059643
sS'trucks'
p2578
F5.241747015059643
sS'course'
p2579
F5.241747015059643
sS'numerous'
p2580
F5.241747015059643
sS'calling'
p2581
F5.241747015059643
sS'fridge'
p2582
F3.632309102625542
sS'stuff'
p2583
F4.548599834499697
sS'overflowing'
p2584
F5.241747015059643
sS'fixed'
p2585
F5.241747015059643
sS'view'
p2586
F2.469158292819861
sS'knowing'
p2587
F5.241747015059643
sS'dillon'
p2588
F5.241747015059643
sS'national'
p2589
F5.241747015059643
sS'computer'
p2590
F4.548599834499697
sS'desperate'
p2591
F5.241747015059643
sS'operated'
p2592
F5.241747015059643
sS'mildew'
p2593
F3.855452653939752
sS'packed'
p2594
F5.241747015059643
sS'creating'
p2595
F4.548599834499697
sS'closer'
p2596
F5.241747015059643
sS'interview'
p2597
F5.241747015059643
sS'closet'
p2598
F5.241747015059643
sS'attempting'
p2599
F5.241747015059643
sS'nightmare'
p2600
F4.548599834499697
sS'complementary'
p2601
F5.241747015059643
sS'superb'
p2602
F5.241747015059643
sS'written'
p2603
F5.241747015059643
sS'correctly'
p2604
F5.241747015059643
sS'horrible'
p2605
F3.1623054733798064
sS'rendition'
p2606
F5.241747015059643
sS'tent'
p2607
F5.241747015059643
sS'perfect'
p2608
F3.1623054733798064
sS'opening'
p2609
F4.548599834499697
sS'beverages'
p2610
F5.241747015059643
sS'courtyard'
p2611
F4.548599834499697
sS'key'
p2612
F3.295836866004329
sS'thank'
p2613
F4.548599834499697
sS'tantrum'
p2614
F5.241747015059643
sS'figured'
p2615
F4.548599834499697
sS'instant'
p2616
F5.241747015059643
sS'doubletree'
p2617
F4.143134726391533
sS'always'
p2618
F2.533696813957432
sS'freely'
p2619
F5.241747015059643
sS'taking'
p2620
F3.449987545831587
sS'drug'
p2621
F5.241747015059643
sS'trips'
p2622
F4.143134726391533
sS'etc'
p2623
F5.241747015059643
sS'swim'
p2624
F5.241747015059643
sS'clogged'
p2625
F5.241747015059643
sS'grounds'
p2626
F4.548599834499697
sS'vent'
p2627
F5.241747015059643
sS'gone'
p2628
F5.241747015059643
sS'wall'
p2629
F3.449987545831587
sS'ca'
p2630
F4.548599834499697
sS'paranormal'
p2631
F4.548599834499697
sS'walk'
p2632
F2.6026896854443837
sS'leaked'
p2633
F5.241747015059643
sS'unclean'
p2634
F4.548599834499697
sS'laquinta'
p2635
F5.241747015059643
sS'maid'
p2636
F3.632309102625542
sS'addition'
p2637
F3.632309102625542
sS'decent'
p2638
F3.449987545831587
sS'apologize'
p2639
F5.241747015059643
sS'exhausted'
p2640
F4.548599834499697
sS'rennaissance'
p2641
F5.241747015059643
sS'drank'
p2642
F5.241747015059643
sS'slowly'
p2643
F4.548599834499697
sS'curtain'
p2644
F5.241747015059643
sS'feather'
p2645
F5.241747015059643
sS'waste'
p2646
F5.241747015059643
sS'naples'
p2647
F5.241747015059643
sS'shoulders'
p2648
F5.241747015059643
sS'controlled'
p2649
F5.241747015059643
sS'stationed'
p2650
F5.241747015059643
sS'painted'
p2651
F5.241747015059643
sS'route'
p2652
F5.241747015059643
sS'airplanes'
p2653
F5.241747015059643
sS'finished'
p2654
F5.241747015059643
sS'deep'
p2655
F5.241747015059643
sS'covered'
p2656
F4.548599834499697
sS'last'
p2657
F2.7568403652716422
sS'atlanta'
p2658
F4.548599834499697
sS'holiday'
p2659
F4.143134726391533
sS'unlike'
p2660
F5.241747015059643
sS'utensils'
p2661
F5.241747015059643
sS'slept'
p2662
F3.855452653939752
sS'homey'
p2663
F5.241747015059643
sS'appearance'
p2664
F4.143134726391533
sS'value'
p2665
F4.143134726391533
sS'choices'
p2666
F5.241747015059643
sS'stunning'
p2667
F4.548599834499697
sS'wild'
p2668
F5.241747015059643
sS'bathtub'
p2669
F5.241747015059643
sS'cereals'
p2670
F5.241747015059643
sS'almost'
p2671
F2.7568403652716422
sS'lush'
p2672
F5.241747015059643
sS'surprisingly'
p2673
F4.548599834499697
sS'helped'
p2674
F4.548599834499697
sS'gothic'
p2675
F5.241747015059643
sS'bucks'
p2676
F5.241747015059643
sS'inspector'
p2677
F5.241747015059643
sS'began'
p2678
F5.241747015059643
sS'cross'
p2679
F4.548599834499697
sS'member'
p2680
F4.548599834499697
sS'piles'
p2681
F5.241747015059643
sS'strange'
p2682
F4.143134726391533
sS'fido'
p2683
F5.241747015059643
sS'dickens'
p2684
F5.241747015059643
sS'units'
p2685
F5.241747015059643
sS'games'
p2686
F5.241747015059643
sS'gets'
p2687
F4.548599834499697
sS'mildly'
p2688
F5.241747015059643
sS'responses'
p2689
F5.241747015059643
sS'columbia'
p2690
F5.241747015059643
sS'econo'
p2691
F5.241747015059643
sS'drink'
p2692
F5.241747015059643
sS'upon'
p2693
F2.843851742261272
sS'nightly'
p2694
F5.241747015059643
sS'impeccable'
p2695
F4.143134726391533
sS'lobby'
p2696
F2.2460147415056513
sS'pleasantly'
p2697
F5.241747015059643
sS'center'
p2698
F3.044522437723423
sS'sweets'
p2699
F5.241747015059643
sS'nonetheless'
p2700
F5.241747015059643
sS'arrival'
p2701
F4.143134726391533
sS'thought'
p2702
F2.9391619220655967
sS'english'
p2703
F4.548599834499697
sS'breaker'
p2704
F5.241747015059643
sS'usual'
p2705
F4.548599834499697
sS'load'
p2706
F5.241747015059643
sS'stores'
p2707
F5.241747015059643
sS'barking'
p2708
F5.241747015059643
sS'heavily'
p2709
F5.241747015059643
sS'savannah'
p2710
F5.241747015059643
sS'proximity'
p2711
F5.241747015059643
sS'replenish'
p2712
F5.241747015059643
sS'rooms'
p2713
F1.052092273033217
sS'advertised'
p2714
F5.241747015059643
sS'miniscule'
p2715
F5.241747015059643
sS'roomy'
p2716
F4.548599834499697
sS'web'
p2717
F5.241747015059643
sS'generous'
p2718
F5.241747015059643
sS'point'
p2719
F3.1623054733798064
sS'dinning'
p2720
F5.241747015059643
sS'lake'
p2721
F4.143134726391533
sS'recommending'
p2722
F5.241747015059643
sS'day'
p2723
F2.1507045617013265
sS'sycuan'
p2724
F5.241747015059643
sS'reasons'
p2725
F5.241747015059643
sS'add'
p2726
F5.241747015059643
sS'attractive'
p2727
F5.241747015059643
sS'wet'
p2728
F4.548599834499697
sS'embossed'
p2729
F5.241747015059643
sS'kick'
p2730
F5.241747015059643
sS'knob'
p2731
F5.241747015059643
sS'ample'
p2732
F3.855452653939752
sS'checking'
p2733
F3.632309102625542
sS'historic'
p2734
F4.143134726391533
sS'five'
p2735
F4.143134726391533
sS'know'
p2736
F3.449987545831587
sS'chalong'
p2737
F5.241747015059643
sS'immediately'
p2738
F3.855452653939752
sS'pier'
p2739
F5.241747015059643
sS'brisk'
p2740
F4.548599834499697
sS'flamingo'
p2741
F5.241747015059643
sS'approach'
p2742
F5.241747015059643
sS'like'
p2743
F1.3915994133495837
sS'inviting'
p2744
F5.241747015059643
sS'chairs'
p2745
F4.548599834499697
sS'hassel'
p2746
F5.241747015059643
sS'candy'
p2747
F5.241747015059643
sS'jameson'
p2748
F5.241747015059643
sS'sized'
p2749
F3.449987545831587
sS'hosts'
p2750
F5.241747015059643
sS'agents'
p2751
F5.241747015059643
sS'works'
p2752
F5.241747015059643
sS'soft'
p2753
F3.632309102625542
sS'italian'
p2754
F5.241747015059643
sS'accessible'
p2755
F4.143134726391533
sS'shabby'
p2756
F4.548599834499697
sS'suites'
p2757
F3.044522437723423
sS'mattresses'
p2758
F5.241747015059643
sS'alive'
p2759
F5.241747015059643
sS'hair'
p2760
F4.548599834499697
sS'flush'
p2761
F5.241747015059643
sS'home'
p2762
F3.044522437723423
sS'liking'
p2763
F5.241747015059643
sS'stuffy'
p2764
F3.855452653939752
sS'disrupting'
p2765
F5.241747015059643
sS'gables'
p2766
F5.241747015059643
sS'leaf'
p2767
F5.241747015059643
sS'lead'
p2768
F4.548599834499697
sS'hallways'
p2769
F4.143134726391533
sS'avoid'
p2770
F4.548599834499697
sS'delightful'
p2771
F5.241747015059643
sS'fountain'
p2772
F4.548599834499697
sS'bustling'
p2773
F5.241747015059643
sS'assuming'
p2774
F5.241747015059643
sS'locate'
p2775
F5.241747015059643
sS'ripped'
p2776
F4.143134726391533
sS'blowing'
p2777
F5.241747015059643
sS'schedule'
p2778
F5.241747015059643
sS'refurbishing'
p2779
F5.241747015059643
sS'likewise'
p2780
F5.241747015059643
sS'pressure'
p2781
F4.548599834499697
sS'although'
p2782
F3.632309102625542
sS'hospitable'
p2783
F5.241747015059643
sS'described'
p2784
F5.241747015059643
sS'repair'
p2785
F5.241747015059643
sS'noisy'
p2786
F3.632309102625542
sS'sister'
p2787
F5.241747015059643
sS'bills'
p2788
F5.241747015059643
sS'actual'
p2789
F4.143134726391533
sS'carried'
p2790
F5.241747015059643
sS'getting'
p2791
F3.449987545831587
sS'freedom'
p2792
F5.241747015059643
sS'location'
p2793
F1.715386490443481
sS'louisville'
p2794
F5.241747015059643
sS'carrier'
p2795
F5.241747015059643
sS'swimming'
p2796
F3.855452653939752
sS'equally'
p2797
F5.241747015059643
sS'unwind'
p2798
F3.855452653939752
sS'travelers'
p2799
F5.241747015059643
sS'washington'
p2800
F5.241747015059643
sS'cocoa'
p2801
F5.241747015059643
sS'playoff'
p2802
F5.241747015059643
sS'weather'
p2803
F4.548599834499697
sS'brush'
p2804
F5.241747015059643
sS'waikiki'
p2805
F4.548599834499697
sS'additional'
p2806
F5.241747015059643
sS'museum'
p2807
F4.548599834499697
sS'spots'
p2808
F4.143134726391533
sS'noticed'
p2809
F4.548599834499697
sS'overestimate'
p2810
F5.241747015059643
sS'spread'
p2811
F5.241747015059643
sS'enticed'
p2812
F5.241747015059643
sS'inner'
p2813
F5.241747015059643
sS'function'
p2814
F5.241747015059643
sS'buy'
p2815
F3.632309102625542
sS'north'
p2816
F3.632309102625542
sS'constantly'
p2817
F5.241747015059643
sS'coke'
p2818
F5.241747015059643
sS'kalahari'
p2819
F5.241747015059643
sS'fountains'
p2820
F5.241747015059643
sS'blaming'
p2821
F5.241747015059643
sS'expected'
p2822
F2.843851742261272
sS'construction'
p2823
F3.855452653939752
sS'helpful'
p2824
F2.533696813957432
sS'ear'
p2825
F5.241747015059643
sS'hg'
p2826
F5.241747015059643
sS'hd'
p2827
F4.548599834499697
sS'made'
p2828
F2.106252799130493
sS'places'
p2829
F3.449987545831587
sS'whether'
p2830
F4.548599834499697
sS'wish'
p2831
F4.143134726391533
sS'hosting'
p2832
F5.241747015059643
sS'placed'
p2833
F4.548599834499697
sS'empty'
p2834
F4.548599834499697
sS'cake'
p2835
F5.241747015059643
sS'problem'
p2836
F4.143134726391533
sS'piece'
p2837
F3.855452653939752
sS'minutes'
p2838
F2.533696813957432
sS'reservations'
p2839
F4.548599834499697
sS'universal'
p2840
F5.241747015059643
sS'circus'
p2841
F5.241747015059643
sS'bedspreads'
p2842
F5.241747015059643
sS'inn'
p2843
F2.0228711901914416
sS'unsavory'
p2844
F5.241747015059643
sS'shooting'
p2845
F5.241747015059643
sS'campus'
p2846
F5.241747015059643
sS'balcony'
p2847
F4.548599834499697
sS'diego'
p2848
F5.241747015059643
sS'compared'
p2849
F4.143134726391533
sS'incredible'
p2850
F3.855452653939752
sS'dressed'
p2851
F5.241747015059643
sS'assorted'
p2852
F5.241747015059643
sS'detail'
p2853
F5.241747015059643
sS'lately'
p2854
F5.241747015059643
sS'book'
p2855
F3.632309102625542
sS'details'
p2856
F4.548599834499697
sS'sick'
p2857
F5.241747015059643
sS'granite'
p2858
F5.241747015059643
sS'incredibly'
p2859
F4.548599834499697
sS'conclusion'
p2860
F5.241747015059643
sS'francisco'
p2861
F3.632309102625542
sS'kinds'
p2862
F5.241747015059643
sS'expereince'
p2863
F5.241747015059643
sS'shown'
p2864
F5.241747015059643
sS'stay'
p2865
F0.7758388964050588
sS'chance'
p2866
F5.241747015059643
sS'additionally'
p2867
F4.143134726391533
sS'priced'
p2868
F4.143134726391533
sS'friends'
p2869
F3.044522437723423
sS'oked'
p2870
F5.241747015059643
sS'ghost'
p2871
F5.241747015059643
sS'baked'
p2872
F5.241747015059643
sS'lakeland'
p2873
F5.241747015059643
sS'lasted'
p2874
F4.548599834499697
sS'hardboiled'
p2875
F5.241747015059643
sS'gardens'
p2876
F5.241747015059643
sS'lauderdale'
p2877
F4.143134726391533
s.