(dp0
S'neg'
p1
ccollections
defaultdict
p2
(c__builtin__
int
p3
tp4
Rp5
S'augustine'
p6
I1
sS'desirable'
p7
I1
sS'yellow'
p8
I1
sS'sleep'
p9
I9
sS'railing'
p10
I1
sS'hate'
p11
I1
sS'poorly'
p12
I2
sS'patches'
p13
I1
sS'bike'
p14
I1
sS'sorry'
p15
I1
sS'restock'
p16
I1
sS'worth'
p17
I5
sS'fireplaces'
p18
I1
sS'misunderstanding'
p19
I1
sS'every'
p20
I6
sS'updates'
p21
I2
sS'ala'
p22
I1
sS'disturb'
p23
I1
sS'basics'
p24
I1
sS'skills'
p25
I1
sS'clientele'
p26
I1
sS'clothes'
p27
I2
sS'enjoy'
p28
I2
sS'tired'
p29
I4
sS'phones'
p30
I1
sS'hanging'
p31
I2
sS'bacon'
p32
I1
sS'direct'
p33
I1
sS'horn'
p34
I1
sS'surrounding'
p35
I1
sS'second'
p36
I3
sS'street'
p37
I6
sS'even'
p38
I30
sS'wreck'
p39
I1
sS'beaten'
p40
I1
sS'lights'
p41
I4
sS'haze'
p42
I1
sS'supplies'
p43
I1
sS'antoinette'
p44
I1
sS'ever'
p45
I14
sS'told'
p46
I9
sS'interstate'
p47
I2
sS'never'
p48
I25
sS'hundreds'
p49
I1
sS'reported'
p50
I1
sS'path'
p51
I2
sS'promptly'
p52
I1
sS'kids'
p53
I5
sS'daughter'
p54
I1
sS'luggage'
p55
I2
sS'items'
p56
I1
sS'credit'
p57
I2
sS'smoke'
p58
I9
sS'changes'
p59
I2
sS'missing'
p60
I2
sS'swearing'
p61
I1
sS'secure'
p62
I1
sS'spooky'
p63
I1
sS'highly'
p64
I2
sS'brought'
p65
I2
sS'guests'
p66
I1
sS'total'
p67
I2
sS'unit'
p68
I1
sS'spoke'
p69
I2
sS'would'
p70
I50
sS'pulling'
p71
I1
sS'negative'
p72
I1
sS'leaks'
p73
I1
sS'call'
p74
I7
sS'calm'
p75
I1
sS'passport'
p76
I1
sS'recommend'
p77
I14
sS'leaky'
p78
I1
sS'beddings'
p79
I1
sS'tell'
p80
I5
sS'separated'
p81
I1
sS'evening'
p82
I2
sS'warp'
p83
I1
sS'phone'
p84
I6
sS'arms'
p85
I1
sS'excellent'
p86
I1
sS'hold'
p87
I1
sS'outdated'
p88
I3
sS'blocking'
p89
I1
sS'must'
p90
I8
sS'word'
p91
I2
sS'room'
p92
I158
sS'cheapest'
p93
I1
sS'work'
p94
I12
sS'worn'
p95
I1
sS'mechanic'
p96
I1
sS'plunger'
p97
I1
sS'example'
p98
I1
sS'indicated'
p99
I1
sS'give'
p100
I1
sS'overheard'
p101
I1
sS'want'
p102
I1
sS'worse'
p103
I5
sS'doorman'
p104
I1
sS'end'
p105
I2
sS'scolding'
p106
I1
sS'provide'
p107
I1
sS'travel'
p108
I3
sS'sitting'
p109
I1
sS'feature'
p110
I1
sS'hot'
p111
I7
sS'gate'
p112
I1
sS'beach'
p113
I8
sS'charging'
p114
I1
sS'pizza'
p115
I1
sS'badly'
p116
I2
sS'beauty'
p117
I1
sS'mess'
p118
I2
sS'earlier'
p119
I1
sS'wrong'
p120
I7
sS'lay'
p121
I2
sS'las'
p122
I2
sS'purchase'
p123
I1
sS'third'
p124
I4
sS'appreciate'
p125
I3
sS'cigarettes'
p126
I2
sS'frequent'
p127
I1
sS'enter'
p128
I1
sS'fan'
p129
I3
sS'order'
p130
I2
sS'office'
p131
I5
sS'satisfied'
p132
I1
sS'ramadas'
p133
I1
sS'jacuzzi'
p134
I2
sS'modesto'
p135
I1
sS'crumbs'
p136
I1
sS'fit'
p137
I1
sS'somewhere'
p138
I4
sS'fix'
p139
I3
sS'better'
p140
I9
sS'weeks'
p141
I1
sS'eventually'
p142
I1
sS'coffee'
p143
I5
sS'safe'
p144
I5
sS'school'
p145
I2
sS'break'
p146
I1
sS'awfully'
p147
I1
sS'astor'
p148
I2
sS'meat'
p149
I1
sS'notified'
p150
I2
sS'reasonably'
p151
I1
sS'ventilation'
p152
I2
sS'reasonable'
p153
I1
sS'went'
p154
I17
sS'meal'
p155
I1
sS'mean'
p156
I2
sS'whim'
p157
I1
sS'strips'
p158
I1
sS'lamanche'
p159
I1
sS'driving'
p160
I2
sS'motel'
p161
I17
sS're'
p162
I1
sS'laid'
p163
I2
sS'nite'
p164
I1
sS'got'
p165
I29
sS'turning'
p166
I1
sS'assured'
p167
I1
sS'little'
p168
I8
sS'free'
p169
I7
sS'standard'
p170
I1
sS'checked'
p171
I9
sS'wanted'
p172
I8
sS'ate'
p173
I1
sS'hg'
p174
I1
sS'created'
p175
I1
sS'inexpensive'
p176
I1
sS'days'
p177
I13
sS'disrespected'
p178
I1
sS'levels'
p179
I1
sS'soda'
p180
I1
sS'moving'
p181
I1
sS'loud'
p182
I7
sS'purpose'
p183
I1
sS'rang'
p184
I1
sS'already'
p185
I3
sS'featured'
p186
I1
sS'floors'
p187
I2
sS'another'
p188
I9
sS'electronic'
p189
I1
sS'service'
p190
I20
sS'similarly'
p191
I1
sS'top'
p192
I1
sS'elevator'
p193
I4
sS'needed'
p194
I6
sS'wost'
p195
I1
sS'legs'
p196
I1
sS'quinta'
p197
I2
sS'dogs'
p198
I5
sS'curtains'
p199
I1
sS'ceiling'
p200
I3
sS'paltry'
p201
I1
sS'gym'
p202
I1
sS'leaking'
p203
I1
sS'took'
p204
I16
sS'rejected'
p205
I1
sS'western'
p206
I1
sS'somewhat'
p207
I6
sS'wasted'
p208
I1
sS'brushed'
p209
I2
sS'distance'
p210
I1
sS'showed'
p211
I1
sS'tree'
p212
I1
sS'spending'
p213
I1
sS'shower'
p214
I8
sS'matter'
p215
I2
sS'friend'
p216
I1
sS'historical'
p217
I1
sS'spoiled'
p218
I2
sS'shampoos'
p219
I1
sS'feeling'
p220
I1
sS'mini'
p221
I1
sS'palace'
p222
I1
sS'ran'
p223
I2
sS'modern'
p224
I1
sS'mind'
p225
I2
sS'upset'
p226
I1
sS'talking'
p227
I3
sS'seen'
p228
I3
sS'seem'
p229
I2
sS'urinate'
p230
I1
sS'seminar'
p231
I2
sS'forced'
p232
I1
sS'convenient'
p233
I2
sS'oriented'
p234
I1
sS'recommended'
p235
I1
sS'luxury'
p236
I2
sS'doors'
p237
I1
sS'though'
p238
I3
sS'thrilled'
p239
I1
sS'regular'
p240
I1
sS'marie'
p241
I2
sS'inconsistency'
p242
I1
sS'darkness'
p243
I1
sS'grove'
p244
I1
sS'freeway'
p245
I1
sS'reputation'
p246
I1
sS'mailing'
p247
I1
sS'responded'
p248
I1
sS'came'
p249
I14
sS'reserve'
p250
I1
sS'contacted'
p251
I1
sS'insects'
p252
I3
sS'queen'
p253
I1
sS'earth'
p254
I1
sS'nevada'
p255
I2
sS'orleans'
p256
I4
sS'busy'
p257
I6
sS'menu'
p258
I2
sS'minnesota'
p259
I1
sS'touched'
p260
I1
sS'disgust'
p261
I1
sS'lodge'
p262
I3
sS'constant'
p263
I2
sS'plate'
p264
I1
sS'stop'
p265
I1
sS'coast'
p266
I1
sS'new'
p267
I9
sS'nasty'
p268
I1
sS'runs'
p269
I3
sS'bar'
p270
I2
sS'covering'
p271
I1
sS'bad'
p272
I4
sS'steak'
p273
I2
sS'secretary'
p274
I1
sS'mandatory'
p275
I1
sS'fair'
p276
I2
sS'decided'
p277
I5
sS'horrendous'
p278
I1
sS'best'
p279
I4
sS'said'
p280
I7
sS'away'
p281
I8
sS'continually'
p282
I1
sS'unable'
p283
I2
sS'finger'
p284
I1
sS'drawn'
p285
I1
sS'approach'
p286
I1
sS'smelled'
p287
I17
sS'handful'
p288
I1
sS'weak'
p289
I1
sS'however'
p290
I16
sS'wi'
p291
I1
sS'lotion'
p292
I1
sS'upfront'
p293
I1
sS'received'
p294
I4
sS'keycard'
p295
I1
sS'veer'
p296
I1
sS'country'
p297
I2
sS'demanded'
p298
I1
sS'mildly'
p299
I1
sS'dents'
p300
I1
sS'login'
p301
I1
sS'asked'
p302
I2
sS'appeared'
p303
I1
sS'towels'
p304
I6
sS'speak'
p305
I3
sS'bathroom'
p306
I11
sS'three'
p307
I4
sS'tiny'
p308
I4
sS'quickly'
p309
I3
sS'confident'
p310
I1
sS'much'
p311
I13
sS'basic'
p312
I3
sS'expected'
p313
I10
sS'entered'
p314
I2
sS'incompetent'
p315
I1
sS'threw'
p316
I3
sS'website'
p317
I4
sS'life'
p318
I3
sS'relaxing'
p319
I1
sS'search'
p320
I1
sS'strewn'
p321
I1
sS'lauderdale'
p322
I1
sS'child'
p323
I1
sS'worked'
p324
I1
sS'east'
p325
I1
sS'pungent'
p326
I1
sS'air'
p327
I8
sS'ugly'
p328
I1
sS'near'
p329
I10
sS'suppose'
p330
I1
sS'stopping'
p331
I1
sS'property'
p332
I6
sS'mistake'
p333
I1
sS'stink'
p334
I1
sS'pyramid'
p335
I1
sS'upscale'
p336
I1
sS'cans'
p337
I1
sS'conditioner'
p338
I5
sS'seattle'
p339
I1
sS'damaged'
p340
I1
sS'bottles'
p341
I2
sS'things'
p342
I4
sS'make'
p343
I14
sS'airport'
p344
I3
sS'jaccuzi'
p345
I1
sS'beside'
p346
I2
sS'visitations'
p347
I1
sS'several'
p348
I6
sS'fairly'
p349
I1
sS'hand'
p350
I3
sS'ocean'
p351
I2
sS'bedspread'
p352
I1
sS'greatest'
p353
I1
sS'qualities'
p354
I1
sS'claims'
p355
I1
sS'corporate'
p356
I3
sS'left'
p357
I13
sS'reno'
p358
I2
sS'sleepy'
p359
I1
sS'thanks'
p360
I1
sS'yes'
p361
I2
sS'yet'
p362
I4
sS'previous'
p363
I1
sS'shoud'
p364
I1
sS'ease'
p365
I1
sS'character'
p366
I1
sS'trampled'
p367
I1
sS'board'
p368
I1
sS'save'
p369
I2
sS'gave'
p370
I8
sS'sanitary'
p371
I1
sS'roach'
p372
I1
sS'burnt'
p373
I1
sS'county'
p374
I1
sS'orlando'
p375
I1
sS'renamed'
p376
I1
sS'sparse'
p377
I2
sS'night'
p378
I27
sS'security'
p379
I1
sS'right'
p380
I12
sS'old'
p381
I13
sS'deal'
p382
I3
sS'people'
p383
I16
sS'crown'
p384
I1
sS'dead'
p385
I3
sS'pain'
p386
I1
sS'ignore'
p387
I1
sS'inhuman'
p388
I1
sS'comments'
p389
I1
sS'everything'
p390
I6
sS'renovations'
p391
I3
sS'asking'
p392
I1
sS'mishawaka'
p393
I1
sS'disappeared'
p394
I1
sS'discount'
p395
I2
sS'buffet'
p396
I2
sS'super'
p397
I8
sS'properties'
p398
I2
sS'diner'
p399
I2
sS'dollars'
p400
I1
sS'months'
p401
I2
sS'dinner'
p402
I1
sS'plus'
p403
I1
sS'shopkeepers'
p404
I1
sS'facility'
p405
I1
sS'pays'
p406
I1
sS'ppl'
p407
I1
sS'renovating'
p408
I1
sS'creamers'
p409
I1
sS'constantly'
p410
I1
sS'stuck'
p411
I3
sS'unwelcoming'
p412
I1
sS'way'
p413
I14
sS'music'
p414
I1
sS'happy'
p415
I1
sS'questionable'
p416
I1
sS'head'
p417
I3
sS'offering'
p418
I2
sS'offer'
p419
I1
sS'fireworks'
p420
I1
sS'landing'
p421
I2
sS'heat'
p422
I1
sS'hear'
p423
I6
sS'removed'
p424
I1
sS'true'
p425
I1
sS'type'
p426
I1
sS'inside'
p427
I2
sS'attached'
p428
I2
sS'ruined'
p429
I2
sS'hotter'
p430
I1
sS'minibar'
p431
I1
sS'stronger'
p432
I1
sS'mediocre'
p433
I3
sS'mold'
p434
I3
sS'trip'
p435
I5
sS'floor'
p436
I13
sS'tip'
p437
I2
sS'handed'
p438
I1
sS'reality'
p439
I1
sS'overnights'
p440
I1
sS'interested'
p441
I2
sS'carpeting'
p442
I2
sS'test'
p443
I2
sS'smell'
p444
I9
sS'company'
p445
I1
sS'handicap'
p446
I2
sS'felt'
p447
I8
sS'weekend'
p448
I6
sS'unlocking'
p449
I1
sS'apologizing'
p450
I1
sS'longer'
p451
I2
sS'glass'
p452
I1
sS'normally'
p453
I1
sS'together'
p454
I2
sS'beds'
p455
I7
sS'reception'
p456
I1
sS'teeth'
p457
I2
sS'serious'
p458
I1
sS'alternatives'
p459
I1
sS'switches'
p460
I1
sS'manager'
p461
I12
sS'mile'
p462
I1
sS'microwave'
p463
I1
sS'vacanies'
p464
I1
sS'disgusting'
p465
I3
sS'kiddie'
p466
I1
sS'finally'
p467
I12
sS'choice'
p468
I1
sS'vegas'
p469
I3
sS'servicing'
p470
I1
sS'stays'
p471
I1
sS'trouble'
p472
I1
sS'blast'
p473
I1
sS'exact'
p474
I1
sS'minute'
p475
I2
sS'cool'
p476
I2
sS'level'
p477
I4
sS'hawaii'
p478
I1
sS'travels'
p479
I2
sS'team'
p480
I1
sS'quick'
p481
I3
sS'dip'
p482
I1
sS'hotelier'
p483
I1
sS'sandcastle'
p484
I1
sS'sign'
p485
I1
sS'cost'
p486
I1
sS'roof'
p487
I2
sS'bake'
p488
I1
sS'drinks'
p489
I2
sS'cleanliness'
p490
I1
sS'switch'
p491
I1
sS'shared'
p492
I1
sS'filled'
p493
I2
sS'clerk'
p494
I1
sS'french'
p495
I5
sS'water'
p496
I19
sS'snack'
p497
I3
sS'address'
p498
I2
sS'along'
p499
I1
sS'change'
p500
I8
sS'wait'
p501
I6
sS'box'
p502
I1
sS'boy'
p503
I2
sS'dusty'
p504
I1
sS'saws'
p505
I1
sS'wherever'
p506
I1
sS'suggestion'
p507
I1
sS'usually'
p508
I1
sS'weird'
p509
I1
sS'carpets'
p510
I4
sS'love'
p511
I2
sS'extra'
p512
I3
sS'prefer'
p513
I1
sS'hotels'
p514
I8
sS'working'
p515
I8
sS'positive'
p516
I3
sS'visit'
p517
I2
sS'live'
p518
I2
sS'going'
p519
I10
sS'roared'
p520
I1
sS'acceptable'
p521
I2
sS'apparent'
p522
I1
sS'futon'
p523
I1
sS'downtown'
p524
I8
sS'everywhere'
p525
I9
sS'effort'
p526
I2
sS'yelling'
p527
I1
sS'edible'
p528
I1
sS'car'
p529
I5
sS'reviews'
p530
I2
sS'wallet'
p531
I1
sS'cab'
p532
I1
sS'arrive'
p533
I2
sS'nearest'
p534
I2
sS'december'
p535
I1
sS'agent'
p536
I1
sS'heard'
p537
I4
sS'winter'
p538
I1
sS'magazine'
p539
I1
sS'write'
p540
I1
sS'fourth'
p541
I2
sS'absolute'
p542
I2
sS'pint'
p543
I1
sS'map'
p544
I1
sS'staying'
p545
I9
sS'laundry'
p546
I1
sS'staircase'
p547
I1
sS'may'
p548
I3
sS'overall'
p549
I7
sS'spot'
p550
I2
sS'disgusted'
p551
I1
sS'birthday'
p552
I3
sS'tipped'
p553
I1
sS'designed'
p554
I1
sS'filthy'
p555
I5
sS'shockingly'
p556
I1
sS'man'
p557
I1
sS'disheartening'
p558
I1
sS'natural'
p559
I2
sS'whenever'
p560
I1
sS'maybe'
p561
I2
sS'wheelchair'
p562
I1
sS'complaining'
p563
I1
sS'gap'
p564
I1
sS'jail'
p565
I1
sS'pulled'
p566
I2
sS'talk'
p567
I1
sS'typical'
p568
I1
sS'refund'
p569
I5
sS'cute'
p570
I1
sS'mainly'
p571
I1
sS'unacceptable'
p572
I1
sS'years'
p573
I1
sS'decently'
p574
I1
sS'ended'
p575
I7
sS'cold'
p576
I1
sS'still'
p577
I11
sS'lied'
p578
I1
sS'torn'
p579
I1
sS'amazing'
p580
I1
sS'heated'
p581
I2
sS'maid'
p582
I5
sS'window'
p583
I6
sS'policy'
p584
I4
sS'showered'
p585
I1
sS'main'
p586
I2
sS'texas'
p587
I1
sS'happened'
p588
I1
sS'non'
p589
I5
sS'views'
p590
I1
sS'conversations'
p591
I1
sS'underneath'
p592
I2
sS'lunch'
p593
I2
sS'drilling'
p594
I1
sS'half'
p595
I3
sS'arriving'
p596
I2
sS'bath'
p597
I2
sS'hall'
p598
I2
sS'name'
p599
I1
sS'corners'
p600
I2
sS'fisherman'
p601
I1
sS'rock'
p602
I1
sS'hinesville'
p603
I1
sS'quarter'
p604
I6
sS'el'
p605
I1
sS'eh'
p606
I1
sS'year'
p607
I3
sS'tried'
p608
I5
sS'shown'
p609
I1
sS'opened'
p610
I2
sS'space'
p611
I2
sS'furthermore'
p612
I1
sS'looking'
p613
I6
sS'internet'
p614
I6
sS'blf'
p615
I1
sS'shows'
p616
I2
sS'attended'
p617
I1
sS'cars'
p618
I1
sS'quite'
p619
I3
sS'unfriendly'
p620
I5
sS'california'
p621
I1
sS'vinyl'
p622
I1
sS'besides'
p623
I1
sS'ajar'
p624
I1
sS'obligation'
p625
I1
sS'remainder'
p626
I1
sS'card'
p627
I2
sS'care'
p628
I3
sS'advance'
p629
I1
sS'carnival'
p630
I1
sS'selections'
p631
I1
sS'programming'
p632
I1
sS'honest'
p633
I1
sS'thing'
p634
I8
sS'place'
p635
I13
sS'charleston'
p636
I2
sS'think'
p637
I4
sS'waited'
p638
I2
sS'first'
p639
I14
sS'flying'
p640
I1
sS'saving'
p641
I1
sS'spoken'
p642
I1
sS'one'
p643
I32
sS'long'
p644
I4
sS'impossible'
p645
I1
sS'sounds'
p646
I1
sS'drove'
p647
I2
sS'open'
p648
I3
sS'size'
p649
I3
sS'city'
p650
I3
sS'given'
p651
I4
sS'sheet'
p652
I1
sS'molded'
p653
I1
sS'district'
p654
I3
sS'caught'
p655
I1
sS'slept'
p656
I1
sS'anyone'
p657
I9
sS'convention'
p658
I2
sS'mermaid'
p659
I1
sS'pittsburgh'
p660
I1
sS'season'
p661
I2
sS'ridiculous'
p662
I1
sS'holder'
p663
I2
sS'television'
p664
I5
sS'unfortunately'
p665
I2
sS'begrudgingly'
p666
I1
sS'transferred'
p667
I1
sS'victorian'
p668
I2
sS'venture'
p669
I1
sS'trekking'
p670
I1
sS'cards'
p671
I1
sS'pre'
p672
I1
sS'buries'
p673
I1
sS'san'
p674
I3
sS'nicer'
p675
I1
sS'turned'
p676
I2
sS'locations'
p677
I3
sS'alley'
p678
I1
sS'sad'
p679
I1
sS'say'
p680
I4
sS'voiced'
p681
I1
sS'breakfast'
p682
I11
sS'saw'
p683
I5
sS'sat'
p684
I1
sS'lumpy'
p685
I1
sS'dining'
p686
I1
sS'jefferson'
p687
I3
sS'take'
p688
I5
sS'interior'
p689
I1
sS'wanting'
p690
I1
sS'surf'
p691
I1
sS'begin'
p692
I1
sS'sure'
p693
I2
sS'multiple'
p694
I3
sS'attractiveness'
p695
I1
sS'price'
p696
I12
sS'microwaves'
p697
I1
sS'paid'
p698
I9
sS'falls'
p699
I1
sS'coworker'
p700
I1
sS'sheets'
p701
I14
sS'complaints'
p702
I4
sS'america'
p703
I1
sS'beachfront'
p704
I2
sS'especially'
p705
I1
sS'surprising'
p706
I1
sS'average'
p707
I3
sS'later'
p708
I12
sS'drive'
p709
I5
sS'pores'
p710
I1
sS'typically'
p711
I1
sS'luxor'
p712
I1
sS'walking'
p713
I1
sS'show'
p714
I3
sS'cheap'
p715
I9
sS'spaces'
p716
I2
sS'corner'
p717
I3
sS'slow'
p718
I4
sS'stained'
p719
I2
sS'outside'
p720
I8
sS'lansing'
p721
I1
sS'wood'
p722
I2
sS'black'
p723
I1
sS'equipped'
p724
I1
sS'blinds'
p725
I1
sS'centrally'
p726
I1
sS'televisions'
p727
I1
sS'phuket'
p728
I1
sS'correctly'
p729
I1
sS'get'
p730
I39
sS'balconies'
p731
I1
sS'truly'
p732
I1
sS'cursing'
p733
I2
sS'nearly'
p734
I2
sS'clerks'
p735
I2
sS'stroll'
p736
I1
sS'morning'
p737
I8
sS'miles'
p738
I2
sS'husband'
p739
I8
sS'ignored'
p740
I2
sS'violated'
p741
I1
sS'college'
p742
I1
sS'parking'
p743
I6
sS'concern'
p744
I1
sS'ways'
p745
I1
sS'enough'
p746
I7
sS'moldy'
p747
I2
sS'reading'
p748
I1
sS'across'
p749
I1
sS'arrival'
p750
I1
sS'notice'
p751
I1
sS'jobs'
p752
I1
sS'august'
p753
I1
sS'moana'
p754
I1
sS'dome'
p755
I1
sS'tub'
p756
I6
sS'cities'
p757
I1
sS'come'
p758
I6
sS'avoid'
p759
I1
sS'many'
p760
I9
sS'quiet'
p761
I4
sS'personal'
p762
I1
sS'disappointment'
p763
I2
sS'furnitures'
p764
I1
sS'nearby'
p765
I4
sS'duty'
p766
I1
sS'color'
p767
I1
sS'ants'
p768
I1
sS'twin'
p769
I1
sS'discolored'
p770
I1
sS'informed'
p771
I5
sS'vacation'
p772
I3
sS'mark'
p773
I1
sS'peaceful'
p774
I1
sS'hardly'
p775
I2
sS'shopping'
p776
I1
sS'tasteless'
p777
I1
sS'offered'
p778
I1
sS'photos'
p779
I1
sS'spills'
p780
I1
sS'bout'
p781
I1
sS'paying'
p782
I4
sS'handicapped'
p783
I1
sS'argonaut'
p784
I1
sS'situation'
p785
I2
sS'shops'
p786
I3
sS'penthouse'
p787
I1
sS'ive'
p788
I1
sS'aston'
p789
I1
sS'sleeping'
p790
I4
sS'middle'
p791
I5
sS'good'
p792
I11
sS'baths'
p793
I1
sS'different'
p794
I7
sS'pay'
p795
I6
sS'reminded'
p796
I3
sS'check'
p797
I8
sS'dated'
p798
I8
sS'week'
p799
I3
sS'extended'
p800
I1
sS'running'
p801
I2
sS'fruit'
p802
I2
sS'two'
p803
I14
sS'climbing'
p804
I1
sS'italian'
p805
I1
sS'complained'
p806
I3
sS'theater'
p807
I1
sS'pennsylvania'
p808
I1
sS'without'
p809
I3
sS'bottle'
p810
I1
sS'trains'
p811
I1
sS'charged'
p812
I2
sS'lysol'
p813
I1
sS'summer'
p814
I3
sS'outdoor'
p815
I1
sS'money'
p816
I8
sS'sights'
p817
I1
sS'rest'
p818
I3
sS'aspect'
p819
I1
sS'speed'
p820
I1
sS'blow'
p821
I1
sS'deceiving'
p822
I1
sS'hint'
p823
I1
sS'thinking'
p824
I1
sS'seems'
p825
I2
sS'except'
p826
I1
sS'around'
p827
I10
sS'stunk'
p828
I1
sS'fridge'
p829
I1
sS'dark'
p830
I2
sS'crowne'
p831
I1
sS'traffic'
p832
I2
sS'using'
p833
I3
sS'railroad'
p834
I1
sS'disappointed'
p835
I4
sS'rear'
p836
I1
sS'furniture'
p837
I1
sS'towel'
p838
I1
sS'stranger'
p839
I1
sS'photographs'
p840
I1
sS'maintained'
p841
I2
sS'server'
p842
I1
sS'facing'
p843
I1
sS'either'
p844
I3
sS'occasions'
p845
I1
sS'served'
p846
I2
sS'substandard'
p847
I1
sS'attenitive'
p848
I1
sS'joking'
p849
I1
sS'redeeming'
p850
I1
sS'provided'
p851
I2
sS'noon'
p852
I1
sS'welcome'
p853
I1
sS'business'
p854
I5
sS'dissapointing'
p855
I1
sS'itching'
p856
I2
sS'nails'
p857
I1
sS'iconic'
p858
I2
sS'broken'
p859
I5
sS'accommodated'
p860
I1
sS'sixty'
p861
I1
sS'thailand'
p862
I1
sS'baffled'
p863
I1
sS'ok'
p864
I2
sS'side'
p865
I1
sS'airline'
p866
I2
sS'stank'
p867
I1
sS'road'
p868
I2
sS'burning'
p869
I1
sS'inclusion'
p870
I1
sS'accounts'
p871
I1
sS'parties'
p872
I1
sS'operator'
p873
I1
sS'dirtyand'
p874
I1
sS'area'
p875
I17
sS'strip'
p876
I2
sS'start'
p877
I2
sS'low'
p878
I4
sS'lot'
p879
I5
sS'overpaid'
p880
I1
sS'mornings'
p881
I1
sS'complete'
p882
I2
sS'staircases'
p883
I1
sS'antiquated'
p884
I1
sS'mice'
p885
I1
sS'trying'
p886
I2
sS'downstairs'
p887
I2
sS'dirty'
p888
I22
sS'beliefs'
p889
I1
sS'rust'
p890
I1
sS'expect'
p891
I5
sS'strongly'
p892
I1
sS'toilet'
p893
I6
sS'ac'
p894
I1
sS'leaked'
p895
I1
sS'toiler'
p896
I1
sS'exhausted'
p897
I2
sS'certain'
p898
I2
sS'forgot'
p899
I1
sS'moved'
p900
I3
sS'ao'
p901
I2
sS'salem'
p902
I1
sS'girlfriend'
p903
I1
sS'rubbed'
p904
I1
sS'drafty'
p905
I1
sS'field'
p906
I1
sS'gambling'
p907
I1
sS'trash'
p908
I3
sS'dismayed'
p909
I1
sS'poor'
p910
I5
sS'requested'
p911
I5
sS'pillows'
p912
I3
sS'congress'
p913
I1
sS'separate'
p914
I1
sS'refunded'
p915
I1
sS'time'
p916
I25
sS'important'
p917
I2
sS'included'
p918
I1
sS'decorated'
p919
I2
sS'finals'
p920
I1
sS'pool'
p921
I13
sS'building'
p922
I4
sS'booked'
p923
I10
sS'remote'
p924
I1
sS'calls'
p925
I2
sS'wife'
p926
I3
sS'wifi'
p927
I4
sS'untidy'
p928
I1
sS'adam'
p929
I1
sS'terranea'
p930
I1
sS'deluxe'
p931
I1
sS'original'
p932
I1
sS'since'
p933
I3
sS'chinese'
p934
I1
sS'lack'
p935
I5
sS'dollar'
p936
I1
sS'month'
p937
I2
sS'debris'
p938
I1
sS'smoking'
p939
I7
sS'messy'
p940
I1
sS'fixtures'
p941
I1
sS'children'
p942
I1
sS'carpet'
p943
I9
sS'tv'
p944
I4
sS'watch'
p945
I2
sS'woould'
p946
I1
sS'health'
p947
I1
sS'activities'
p948
I1
sS'woman'
p949
I3
sS'returned'
p950
I5
sS'returning'
p951
I5
sS'far'
p952
I10
sS'worst'
p953
I20
sS'minded'
p954
I1
sS'awful'
p955
I4
sS'condition'
p956
I1
sS'syracuse'
p957
I2
sS'washing'
p958
I1
sS'cable'
p959
I1
sS'louis'
p960
I1
sS'laying'
p961
I1
sS'small'
p962
I11
sS'teh'
p963
I1
sS'rats'
p964
I1
sS'ten'
p965
I1
sS'past'
p966
I2
sS'rate'
p967
I3
sS'design'
p968
I1
sS'situated'
p969
I1
sS'dial'
p970
I2
sS'abc'
p971
I1
sS'sub'
p972
I1
sS'musty'
p973
I3
sS'choson'
p974
I1
sS'plush'
p975
I1
sS'full'
p976
I5
sS'unprofessional'
p977
I1
sS'answers'
p978
I1
sS'hours'
p979
I11
sS'tracks'
p980
I1
sS'operating'
p981
I1
sS'directions'
p982
I1
sS'personable'
p983
I1
sS'chipped'
p984
I1
sS'vegetarian'
p985
I1
sS'experience'
p986
I15
sS'amount'
p987
I2
sS'options'
p988
I2
sS'family'
p989
I9
sS'buses'
p990
I1
sS'suddenly'
p991
I1
sS'put'
p992
I5
sS'eye'
p993
I1
sS'occassion'
p994
I1
sS'faint'
p995
I1
sS'charge'
p996
I3
sS'rustic'
p997
I1
sS'amenities'
p998
I5
sS'taken'
p999
I3
sS'tacky'
p1000
I2
sS'diamond'
p1001
I1
sS'door'
p1002
I11
sS'brisk'
p1003
I1
sS'telephone'
p1004
I1
sS'basically'
p1005
I1
sS'broke'
p1006
I1
sS'particular'
p1007
I3
sS'glad'
p1008
I1
sS'town'
p1009
I5
sS'keeping'
p1010
I2
sS'hour'
p1011
I7
sS'blah'
p1012
I1
sS'gaucho'
p1013
I1
sS'sucks'
p1014
I1
sS'knocked'
p1015
I2
sS'male'
p1016
I1
sS'history'
p1017
I1
sS'beautiful'
p1018
I1
sS'atrocious'
p1019
I2
sS'stated'
p1020
I3
sS'niagara'
p1021
I1
sS'purchased'
p1022
I1
sS'huge'
p1023
I2
sS'awkward'
p1024
I1
sS'rather'
p1025
I2
sS'comfort'
p1026
I2
sS'stayed'
p1027
I28
sS'maps'
p1028
I1
sS'motels'
p1029
I1
sS'intended'
p1030
I1
sS'rude'
p1031
I11
sS'par'
p1032
I1
sS'plane'
p1033
I1
sS'lighting'
p1034
I1
sS'coming'
p1035
I1
sS'fi'
p1036
I1
sS'fl'
p1037
I2
sS'short'
p1038
I1
sS'crowded'
p1039
I2
sS'toiletries'
p1040
I1
sS'register'
p1041
I2
sS'bugs'
p1042
I6
sS'shore'
p1043
I1
sS'deafening'
p1044
I1
sS'rentals'
p1045
I1
sS'mexican'
p1046
I1
sS'help'
p1047
I4
sS'stains'
p1048
I6
sS'advised'
p1049
I1
sS'soon'
p1050
I2
sS'held'
p1051
I1
sS'paper'
p1052
I8
sS'style'
p1053
I1
sS'debilitated'
p1054
I1
sS'caesars'
p1055
I1
sS'actually'
p1056
I4
sS'late'
p1057
I5
sS'resort'
p1058
I5
sS'travelling'
p1059
I1
sS'might'
p1060
I3
sS'someone'
p1061
I9
sS'return'
p1062
I2
sS'disrespectful'
p1063
I1
sS'food'
p1064
I11
sS'units'
p1065
I1
sS'walls'
p1066
I7
sS'grubby'
p1067
I1
sS'starbucks'
p1068
I1
sS'foot'
p1069
I2
sS'complain'
p1070
I1
sS'bigger'
p1071
I1
sS'desperately'
p1072
I1
sS'stopper'
p1073
I1
sS'fulls'
p1074
I1
sS'pregnant'
p1075
I1
sS'always'
p1076
I4
sS'stopped'
p1077
I1
sS'found'
p1078
I12
sS'difficult'
p1079
I2
sS'disorganized'
p1080
I1
sS'caliber'
p1081
I1
sS'needless'
p1082
I4
sS'house'
p1083
I3
sS'hard'
p1084
I3
sS'idea'
p1085
I1
sS'connect'
p1086
I1
sS'really'
p1087
I13
sS'leave'
p1088
I4
sS'missed'
p1089
I1
sS'surrounded'
p1090
I1
sS'pigeon'
p1091
I1
sS'safety'
p1092
I2
sS'flowed'
p1093
I1
sS'denoted'
p1094
I1
sS'issue'
p1095
I1
sS'highway'
p1096
I3
sS'tenerloin'
p1097
I1
sS'housed'
p1098
I1
sS'dirt'
p1099
I1
sS'guess'
p1100
I1
sS'pleasant'
p1101
I2
sS'houses'
p1102
I1
sS'reason'
p1103
I1
sS'unsightly'
p1104
I1
sS'conditioning'
p1105
I2
sS'dire'
p1106
I1
sS'imagine'
p1107
I3
sS'ask'
p1108
I4
sS'attendant'
p1109
I1
sS'owners'
p1110
I1
sS'terrible'
p1111
I9
sS'noted'
p1112
I1
sS'terribly'
p1113
I1
sS'audacity'
p1114
I1
sS'major'
p1115
I5
sS'feel'
p1116
I9
sS'mistakenly'
p1117
I1
sS'knocking'
p1118
I2
sS'done'
p1119
I3
sS'defects'
p1120
I1
sS'fees'
p1121
I2
sS'bland'
p1122
I1
sS'traveler'
p1123
I2
sS'cups'
p1124
I1
sS'story'
p1125
I1
sS'guest'
p1126
I4
sS'least'
p1127
I5
sS'paint'
p1128
I1
sS'flimsy'
p1129
I1
sS'station'
p1130
I2
sS'store'
p1131
I1
sS'hotel'
p1132
I156
sS'park'
p1133
I2
sS'part'
p1134
I7
sS'believe'
p1135
I2
sS'stairs'
p1136
I4
sS'ste'
p1137
I1
sS'kind'
p1138
I1
sS'b'
p1139
I2
sS'squeaky'
p1140
I1
sS'double'
p1141
I1
sS'getaway'
p1142
I2
sS'outrageous'
p1143
I1
sS'supposed'
p1144
I1
sS'stale'
p1145
I2
sS'treated'
p1146
I3
sS'cleaner'
p1147
I1
sS'picked'
p1148
I2
sS'refrigerators'
p1149
I1
sS'suspicious'
p1150
I1
sS'showers'
p1151
I2
sS'cleaned'
p1152
I8
sS'philly'
p1153
I2
sS'remodel'
p1154
I1
sS'ratings'
p1155
I1
sS'speaking'
p1156
I1
sS'eeeeeek'
p1157
I1
sS'self'
p1158
I1
sS'commotion'
p1159
I1
sS'spreadings'
p1160
I1
sS'also'
p1161
I25
sS'useless'
p1162
I1
sS'play'
p1163
I1
sS'experienced'
p1164
I1
sS'carolina'
p1165
I1
sS'inconvenience'
p1166
I1
sS'cigarette'
p1167
I1
sS'brooklyn'
p1168
I2
sS'charm'
p1169
I1
sS'plan'
p1170
I2
sS'nothing'
p1171
I6
sS'extremely'
p1172
I8
sS'windows'
p1173
I3
sS'popularity'
p1174
I1
sS'cover'
p1175
I2
sS'unreasonable'
p1176
I1
sS'clean'
p1177
I16
sS'taxi'
p1178
I1
sS'cereal'
p1179
I1
sS'vending'
p1180
I2
sS'accommodations'
p1181
I3
sS'fine'
p1182
I4
sS'find'
p1183
I18
sS'access'
p1184
I2
sS'ruin'
p1185
I1
sS'less'
p1186
I3
sS'unhappy'
p1187
I1
sS'starters'
p1188
I1
sS'flights'
p1189
I1
sS'pretty'
p1190
I10
sS'circle'
p1191
I2
sS'king'
p1192
I2
sS'neon'
p1193
I1
sS'grocery'
p1194
I1
sS'cheaper'
p1195
I1
sS'famous'
p1196
I1
sS'feels'
p1197
I2
sS'closely'
p1198
I1
sS'emails'
p1199
I1
sS'enemy'
p1200
I3
sS'glorified'
p1201
I1
sS'unenjoyable'
p1202
I1
sS'generally'
p1203
I1
sS'remove'
p1204
I1
sS'common'
p1205
I1
sS'retouched'
p1206
I1
sS'activity'
p1207
I1
sS'hype'
p1208
I1
sS'restaurants'
p1209
I3
sS'manger'
p1210
I1
sS'bars'
p1211
I1
sS'set'
p1212
I1
sS'sex'
p1213
I2
sS'culture'
p1214
I1
sS'see'
p1215
I4
sS'bare'
p1216
I1
sS'close'
p1217
I3
sS'visiting'
p1218
I3
sS'movie'
p1219
I2
sS'please'
p1220
I1
sS'case'
p1221
I1
sS'probably'
p1222
I4
sS'conditions'
p1223
I2
sS'knowing'
p1224
I1
sS'mildew'
p1225
I4
sS'creating'
p1226
I1
sS'complementary'
p1227
I1
sS'premises'
p1228
I1
sS'sold'
p1229
I2
sS'attention'
p1230
I2
sS'spray'
p1231
I1
sS'last'
p1232
I8
sS'restaurant'
p1233
I8
sS'fiance'
p1234
I1
sS'barely'
p1235
I4
sS'connection'
p1236
I2
sS'became'
p1237
I2
sS'let'
p1238
I2
sS'whole'
p1239
I3
sS'load'
p1240
I1
sS'wouldnt'
p1241
I2
sS'drunk'
p1242
I2
sS'simple'
p1243
I1
sS'simply'
p1244
I2
sS'carnivalthe'
p1245
I1
sS'throughout'
p1246
I1
sS'expensive'
p1247
I1
sS'filth'
p1248
I1
sS'due'
p1249
I7
sS'pa'
p1250
I1
sS'maintenance'
p1251
I2
sS'meeting'
p1252
I1
sS'woke'
p1253
I2
sS'pm'
p1254
I1
sS'flight'
p1255
I1
sS'gas'
p1256
I1
sS'else'
p1257
I2
sS'specifically'
p1258
I1
sS'prices'
p1259
I6
sS'wedding'
p1260
I2
sS'georgia'
p1261
I1
sS'soiled'
p1262
I1
sS'look'
p1263
I2
sS'frozen'
p1264
I1
sS'bill'
p1265
I1
sS'replaced'
p1266
I2
sS'fun'
p1267
I1
sS'hoping'
p1268
I1
sS'disappointing'
p1269
I1
sS'rio'
p1270
I1
sS'ready'
p1271
I8
sS'rid'
p1272
I3
sS'funny'
p1273
I1
sS'decor'
p1274
I4
sS'maids'
p1275
I1
sS'makeshift'
p1276
I1
sS'grand'
p1277
I2
sS'itchy'
p1278
I1
sS'higher'
p1279
I1
sS'hallway'
p1280
I5
sS'used'
p1281
I3
sS'displeased'
p1282
I1
sS'keys'
p1283
I4
sS'layovers'
p1284
I1
sS'virginia'
p1285
I2
sS'existent'
p1286
I1
sS'moment'
p1287
I2
sS'walmart'
p1288
I1
sS'arrived'
p1289
I14
sS'cleaning'
p1290
I5
sS'plugs'
p1291
I1
sS'tobacco'
p1292
I1
sS'recent'
p1293
I2
sS'early'
p1294
I2
sS'anybody'
p1295
I1
sS'person'
p1296
I8
sS'historic'
p1297
I2
sS'spend'
p1298
I4
sS'grossly'
p1299
I1
sS'ambassador'
p1300
I1
sS'chalong'
p1301
I2
sS'aliante'
p1302
I2
sS'rumbling'
p1303
I1
sS'questions'
p1304
I2
sS'rundown'
p1305
I1
sS'tables'
p1306
I1
sS'lady'
p1307
I1
sS'workers'
p1308
I1
sS'exclusively'
p1309
I1
sS'location'
p1310
I16
sS'excited'
p1311
I1
sS'complaint'
p1312
I2
sS'lacking'
p1313
I1
sS'big'
p1314
I5
sS'couple'
p1315
I2
sS'matters'
p1316
I2
sS'game'
p1317
I1
sS'damage'
p1318
I1
sS'bit'
p1319
I2
sS'sharpened'
p1320
I1
sS'like'
p1321
I36
sS'knock'
p1322
I1
sS'disrepair'
p1323
I1
sS'semi'
p1324
I1
sS'heart'
p1325
I1
sS'individuals'
p1326
I1
sS'barly'
p1327
I2
sS'popular'
p1328
I3
sS'unhindered'
p1329
I1
sS'google'
p1330
I1
sS'often'
p1331
I3
sS'absolutely'
p1332
I3
sS'back'
p1333
I21
sS'added'
p1334
I2
sS'palm'
p1335
I1
sS'pricing'
p1336
I1
sS'oddly'
p1337
I1
sS'delivered'
p1338
I2
sS'decision'
p1339
I1
sS'firecracker'
p1340
I1
sS'per'
p1341
I1
sS'minimal'
p1342
I1
sS'run'
p1343
I4
sS'odor'
p1344
I2
sS'offenders'
p1345
I2
sS'refused'
p1346
I1
sS'nowhere'
p1347
I1
sS'housekeeping'
p1348
I7
sS'anything'
p1349
I6
sS'exaggerated'
p1350
I1
sS'plaza'
p1351
I2
sS'melbourne'
p1352
I1
sS'experiences'
p1353
I1
sS'complimentary'
p1354
I1
sS'repair'
p1355
I1
sS'colorado'
p1356
I2
sS'garbage'
p1357
I2
sS'within'
p1358
I1
sS'services'
p1359
I1
sS'kailua'
p1360
I1
sS'smells'
p1361
I2
sS'impressed'
p1362
I1
sS'jameson'
p1363
I1
sS'handles'
p1364
I1
sS'amidst'
p1365
I1
sS'housekeepers'
p1366
I1
sS'summertime'
p1367
I1
sS'elsewhere'
p1368
I1
sS'optimist'
p1369
I1
sS'properly'
p1370
I2
sS'dull'
p1371
I1
sS'permissable'
p1372
I1
sS'vacancies'
p1373
I1
sS'us'
p1374
I34
sS'similar'
p1375
I1
sS'called'
p1376
I8
sS'bell'
p1377
I1
sS'curt'
p1378
I1
sS'sometimes'
p1379
I1
sS'ordered'
p1380
I2
sS'steeped'
p1381
I1
sS'warning'
p1382
I1
sS'cafe'
p1383
I1
sS'lemon'
p1384
I1
sS'definitely'
p1385
I5
sS'electrical'
p1386
I1
sS'nice'
p1387
I17
sS'scrub'
p1388
I1
sS'users'
p1389
I1
sS'gross'
p1390
I3
sS'problems'
p1391
I1
sS'prepared'
p1392
I2
sS'helping'
p1393
I1
sS'allowing'
p1394
I1
sS'drab'
p1395
I3
sS'reservation'
p1396
I5
sS'meals'
p1397
I4
sS'freeways'
p1398
I1
sS'ago'
p1399
I1
sS'e'
p1400
I1
sS'overlooking'
p1401
I1
sS'valuables'
p1402
I1
sS'required'
p1403
I2
sS'walked'
p1404
I4
sS'annoyed'
p1405
I2
sS'carrying'
p1406
I1
sS'lafayette'
p1407
I2
sS'literally'
p1408
I3
sS'fresh'
p1409
I2
sS'buffalo'
p1410
I1
sS'sounded'
p1411
I2
sS'hampton'
p1412
I1
sS'code'
p1413
I2
sS'partial'
p1414
I1
sS'enjoyable'
p1415
I1
sS'baby'
p1416
I1
sS'ga'
p1417
I1
sS'go'
p1418
I8
sS'seemed'
p1419
I12
sS'young'
p1420
I2
sS'send'
p1421
I2
sS'suite'
p1422
I3
sS'friendly'
p1423
I3
sS'sent'
p1424
I2
sS'random'
p1425
I3
sS'roaches'
p1426
I2
sS'entire'
p1427
I8
sS'transmission'
p1428
I1
sS'try'
p1429
I1
sS'rack'
p1430
I2
sS'unsatisfied'
p1431
I1
sS'frigid'
p1432
I1
sS'blowing'
p1433
I1
sS'traveling'
p1434
I2
sS'uncomfortable'
p1435
I7
sS'reunion'
p1436
I1
sS'odd'
p1437
I1
sS'makers'
p1438
I1
sS'asap'
p1439
I1
sS'valet'
p1440
I1
sS'cell'
p1441
I1
sS'waiting'
p1442
I2
sS'twins'
p1443
I1
sS'nights'
p1444
I4
sS'refilled'
p1445
I1
sS'body'
p1446
I3
sS'led'
p1447
I1
sS'chose'
p1448
I2
sS'commercial'
p1449
I1
sS'desired'
p1450
I1
sS'objects'
p1451
I1
sS'focused'
p1452
I1
sS'sink'
p1453
I3
sS'pancake'
p1454
I1
sS'others'
p1455
I2
sS'safer'
p1456
I1
sS'vinegar'
p1457
I1
sS'great'
p1458
I8
sS'uneasy'
p1459
I1
sS'receive'
p1460
I1
sS'involved'
p1461
I1
sS'casino'
p1462
I8
sS'shades'
p1463
I1
sS'haunts'
p1464
I1
sS'leaving'
p1465
I1
sS'products'
p1466
I1
sS'armpit'
p1467
I1
sS'popcorn'
p1468
I1
sS'opinion'
p1469
I1
sS'residents'
p1470
I1
sS'makes'
p1471
I2
sS'claim'
p1472
I1
sS'motor'
p1473
I1
sS'tap'
p1474
I1
sS'boasts'
p1475
I1
sS'standing'
p1476
I3
sS'use'
p1477
I3
sS'fee'
p1478
I1
sS'iced'
p1479
I1
sS'illegal'
p1480
I1
sS'next'
p1481
I13
sS'doubt'
p1482
I1
sS'snobbish'
p1483
I1
sS'started'
p1484
I2
sS'folks'
p1485
I1
sS'train'
p1486
I1
sS'brochure'
p1487
I1
sS'customer'
p1488
I3
sS'animals'
p1489
I1
sS'salad'
p1490
I1
sS'locks'
p1491
I1
sS'creepy'
p1492
I1
sS'anywhere'
p1493
I1
sS'obvious'
p1494
I3
sS'thin'
p1495
I5
sS'meet'
p1496
I1
sS'didnt'
p1497
I1
sS'point'
p1498
I5
sS'wharf'
p1499
I1
sS'reserved'
p1500
I3
sS'lock'
p1501
I1
sS'high'
p1502
I6
sS'hilton'
p1503
I5
sS'something'
p1504
I8
sS'six'
p1505
I1
sS'delay'
p1506
I1
sS'located'
p1507
I7
sS'lamp'
p1508
I1
sS'instead'
p1509
I1
sS'stock'
p1510
I2
sS'blocks'
p1511
I1
sS'peeling'
p1512
I3
sS'bothered'
p1513
I1
sS'belongings'
p1514
I1
sS'marriott'
p1515
I1
sS'realized'
p1516
I3
sS'light'
p1517
I4
sS'counter'
p1518
I2
sS'interrupted'
p1519
I1
sS'allow'
p1520
I1
sS'crawling'
p1521
I4
sS'pastries'
p1522
I2
sS'unmade'
p1523
I1
sS'move'
p1524
I2
sS'looks'
p1525
I1
sS'belltown'
p1526
I1
sS'happiest'
p1527
I1
sS'bunch'
p1528
I1
sS'bedsheets'
p1529
I1
sS'superior'
p1530
I1
sS'le'
p1531
I1
sS'la'
p1532
I3
sS'chosen'
p1533
I1
sS'degrees'
p1534
I1
sS'choose'
p1535
I1
sS'covered'
p1536
I1
sS'holiday'
p1537
I1
sS'crowds'
p1538
I1
sS'junction'
p1539
I1
sS'mention'
p1540
I1
sS'cutting'
p1541
I1
sS'front'
p1542
I26
sS'cage'
p1543
I1
sS'day'
p1544
I16
sS'shortage'
p1545
I1
sS'pools'
p1546
I1
sS'apologize'
p1547
I1
sS'ambiance'
p1548
I1
sS'sexual'
p1549
I1
sS'special'
p1550
I2
sS'oked'
p1551
I1
sS'lukewarm'
p1552
I1
sS'inch'
p1553
I1
sS'extenders'
p1554
I1
sS'cause'
p1555
I1
sS'red'
p1556
I3
sS'shut'
p1557
I1
sS'approached'
p1558
I2
sS'bedbugs'
p1559
I4
sS'completely'
p1560
I3
sS'york'
p1561
I1
sS'could'
p1562
I26
sS'florida'
p1563
I2
sS'times'
p1564
I7
sS'biting'
p1565
I1
sS'laquinta'
p1566
I1
sS'south'
p1567
I2
sS'rudely'
p1568
I1
sS'scene'
p1569
I1
sS'owner'
p1570
I1
sS'inns'
p1571
I1
sS'quality'
p1572
I8
sS'continental'
p1573
I3
sS'management'
p1574
I2
sS'sadly'
p1575
I1
sS'ordering'
p1576
I1
sS'establishments'
p1577
I1
sS'renovation'
p1578
I2
sS'priority'
p1579
I1
sS'exactly'
p1580
I1
sS'july'
p1581
I2
sS'haven'
p1582
I1
sS'furnishings'
p1583
I1
sS'bed'
p1584
I28
sS'visited'
p1585
I2
sS'comfortable'
p1586
I5
sS'receptionist'
p1587
I1
sS'need'
p1588
I9
sS'turn'
p1589
I3
sS'apparently'
p1590
I2
sS'clearly'
p1591
I1
sS'necessities'
p1592
I1
sS'documents'
p1593
I1
sS'venturing'
p1594
I1
sS'dishes'
p1595
I1
sS'marais'
p1596
I1
sS'able'
p1597
I4
sS'mid'
p1598
I1
sS'waffles'
p1599
I1
sS'mix'
p1600
I1
sS'baseboards'
p1601
I1
sS'concerns'
p1602
I1
sS'truck'
p1603
I1
sS'soap'
p1604
I1
sS'unless'
p1605
I1
sS'connected'
p1606
I1
sS'request'
p1607
I1
sS'face'
p1608
I1
sS'looked'
p1609
I14
sS'pictures'
p1610
I2
sS'swarming'
p1611
I1
sS'fact'
p1612
I5
sS'son'
p1613
I1
sS'impression'
p1614
I1
sS'atmosphere'
p1615
I3
sS'selection'
p1616
I1
sS'violation'
p1617
I1
sS'agreed'
p1618
I1
sS'indoor'
p1619
I3
sS'anyway'
p1620
I1
sS'vacancy'
p1621
I2
sS'bring'
p1622
I1
sS'rough'
p1623
I1
sS'staff'
p1624
I26
sS'grabbed'
p1625
I1
sS'operational'
p1626
I1
sS'creamer'
p1627
I1
sS'bourbon'
p1628
I1
sS'local'
p1629
I1
sS'meant'
p1630
I1
sS'means'
p1631
I1
sS'michigan'
p1632
I1
sS'cranky'
p1633
I1
sS'lucky'
p1634
I1
sS'spur'
p1635
I1
sS'areas'
p1636
I4
sS'trucks'
p1637
I1
sS'course'
p1638
I1
sS'numerous'
p1639
I1
sS'calling'
p1640
I1
sS'stuff'
p1641
I3
sS'overflowing'
p1642
I1
sS'fixed'
p1643
I1
sS'view'
p1644
I3
sS'available'
p1645
I7
sS'dillon'
p1646
I1
sS'computer'
p1647
I2
sS'desperate'
p1648
I1
sS'operated'
p1649
I1
sS'recently'
p1650
I5
sS'packed'
p1651
I1
sS'responses'
p1652
I1
sS'closer'
p1653
I1
sS'attempting'
p1654
I1
sS'nightmare'
p1655
I2
sS'horribly'
p1656
I3
sS'state'
p1657
I3
sS'closed'
p1658
I2
sS'horrible'
p1659
I9
sS'tent'
p1660
I1
sS'opening'
p1661
I2
sS'beverages'
p1662
I1
sS'courtyard'
p1663
I1
sS'key'
p1664
I6
sS'thank'
p1665
I2
sS'doubletree'
p1666
I2
sS'freely'
p1667
I1
sS'taking'
p1668
I2
sS'drug'
p1669
I1
sS'creeping'
p1670
I1
sS'clogged'
p1671
I1
sS'kinds'
p1672
I1
sS'vent'
p1673
I1
sS'gone'
p1674
I1
sS'wall'
p1675
I6
sS'paranormal'
p1676
I2
sS'walk'
p1677
I6
sS'table'
p1678
I1
sS'unclean'
p1679
I3
sS'addition'
p1680
I1
sS'decent'
p1681
I4
sS'taste'
p1682
I1
sS'drank'
p1683
I1
sS'slowly'
p1684
I2
sS'curtain'
p1685
I1
sS'waste'
p1686
I1
sS'shoulders'
p1687
I1
sS'painted'
p1688
I1
sS'route'
p1689
I1
sS'airplanes'
p1690
I1
sS'deep'
p1691
I1
sS'folding'
p1692
I1
sS'despite'
p1693
I3
sS'plain'
p1694
I1
sS'appearance'
p1695
I3
sS'bathtub'
p1696
I1
sS'almost'
p1697
I8
sS'surprisingly'
p1698
I1
sS'helped'
p1699
I1
sS'bucks'
p1700
I1
sS'inspector'
p1701
I1
sS'began'
p1702
I1
sS'cross'
p1703
I1
sS'member'
p1704
I3
sS'strange'
p1705
I3
sS'shuttle'
p1706
I2
sS'party'
p1707
I6
sS'hammering'
p1708
I1
sS'econo'
p1709
I2
sS'upon'
p1710
I4
sS'lobby'
p1711
I6
sS'center'
p1712
I3
sS'detergents'
p1713
I1
sS'well'
p1714
I11
sS'thought'
p1715
I9
sS'english'
p1716
I1
sS'usual'
p1717
I1
sS'stores'
p1718
I1
sS'heavily'
p1719
I1
sS'savannah'
p1720
I1
sS'replenish'
p1721
I1
sS'rooms'
p1722
I43
sS'advertised'
p1723
I3
sS'miniscule'
p1724
I1
sS'web'
p1725
I1
sS'headed'
p1726
I1
sS'lake'
p1727
I1
sS'recommending'
p1728
I1
sS'realize'
p1729
I1
sS'reasons'
p1730
I1
sS'wet'
p1731
I2
sS'knob'
p1732
I1
sS'checking'
p1733
I6
sS'dryer'
p1734
I2
sS'five'
p1735
I2
sS'know'
p1736
I1
sS'desk'
p1737
I28
sS'immediately'
p1738
I2
sS'crisp'
p1739
I1
sS'helpful'
p1740
I3
sS'lost'
p1741
I1
sS'hosts'
p1742
I1
sS'agents'
p1743
I1
sS'works'
p1744
I1
sS'replacement'
p1745
I1
sS'accessible'
p1746
I2
sS'shabby'
p1747
I2
sS'suites'
p1748
I3
sS'alive'
p1749
I1
sS'hair'
p1750
I1
sS'flush'
p1751
I2
sS'home'
p1752
I5
sS'liking'
p1753
I1
sS'stuffy'
p1754
I3
sS'disrupting'
p1755
I1
sS'lead'
p1756
I1
sS'hallways'
p1757
I3
sS'bedding'
p1758
I3
sS'fountain'
p1759
I1
sS'assuming'
p1760
I1
sS'ripped'
p1761
I3
sS'noise'
p1762
I5
sS'schedule'
p1763
I1
sS'refurbishing'
p1764
I1
sS'stellar'
p1765
I1
sS'pressure'
p1766
I2
sS'although'
p1767
I3
sS'described'
p1768
I1
sS'noisy'
p1769
I5
sS'sister'
p1770
I1
sS'actual'
p1771
I3
sS'getting'
p1772
I4
sS'carrier'
p1773
I1
sS'swimming'
p1774
I2
sS'rectify'
p1775
I1
sS'brush'
p1776
I1
sS'waikiki'
p1777
I3
sS'additional'
p1778
I1
sS'overestimate'
p1779
I1
sS'intention'
p1780
I1
sS'enticed'
p1781
I1
sS'function'
p1782
I1
sS'buy'
p1783
I2
sS'north'
p1784
I2
sS'bus'
p1785
I1
sS'blaming'
p1786
I1
sS'construction'
p1787
I8
sS'ear'
p1788
I1
sS'eat'
p1789
I2
sS'made'
p1790
I14
sS'places'
p1791
I3
sS'wish'
p1792
I1
sS'hosting'
p1793
I1
sS'placed'
p1794
I2
sS'empty'
p1795
I2
sS'problem'
p1796
I1
sS'piece'
p1797
I2
sS'minutes'
p1798
I13
sS'reservations'
p1799
I1
sS'universal'
p1800
I1
sS'circus'
p1801
I2
sS'inn'
p1802
I15
sS'unsavory'
p1803
I1
sS'shooting'
p1804
I1
sS'balcony'
p1805
I1
sS'diego'
p1806
I1
sS'compared'
p1807
I2
sS'incredible'
p1808
I1
sS'lately'
p1809
I1
sS'book'
p1810
I1
sS'sick'
p1811
I1
sS'francisco'
p1812
I2
sS'star'
p1813
I2
sS'stay'
p1814
I56
sS'chance'
p1815
I1
sS'additionally'
p1816
I2
sS'priced'
p1817
I3
sS'friends'
p1818
I3
sS'lasted'
p1819
I1
sS'representative'
p1820
I1
ssS'pos'
p1821
g2
(g3
tp1822
Rp1823
S'saver'
p1824
I1
sS'four'
p1825
I3
sS'facilities'
p1826
I2
sS'sleep'
p1827
I3
sS'ornate'
p1828
I1
sS'saved'
p1829
I3
sS'eligible'
p1830
I1
sS'remodeled'
p1831
I2
sS'slipping'
p1832
I1
sS'worth'
p1833
I2
sS'updated'
p1834
I4
sS'connects'
p1835
I1
sS'every'
p1836
I4
sS'bringing'
p1837
I1
sS'tickets'
p1838
I1
sS'school'
p1839
I1
sS'skills'
p1840
I1
sS'convenience'
p1841
I3
sS'snorkling'
p1842
I1
sS'enjoy'
p1843
I10
sS'jamaica'
p1844
I1
sS'tired'
p1845
I1
sS'construed'
p1846
I1
sS'bacon'
p1847
I2
sS'japanese'
p1848
I1
sS'elegant'
p1849
I6
sS'likely'
p1850
I2
sS'street'
p1851
I8
sS'kentucky'
p1852
I1
sS'oread'
p1853
I1
sS'snuggled'
p1854
I1
sS'machines'
p1855
I1
sS'even'
p1856
I25
sS'lights'
p1857
I2
sS'new'
p1858
I4
sS'ever'
p1859
I16
sS'disney'
p1860
I2
sS'counters'
p1861
I1
sS'pancakes'
p1862
I1
sS'never'
p1863
I4
sS'bookcase'
p1864
I1
sS'kids'
p1865
I8
sS'daughter'
p1866
I6
sS'luggage'
p1867
I1
sS'auction'
p1868
I1
sS'items'
p1869
I1
sS'employees'
p1870
I1
sS'girlfrind'
p1871
I1
sS'military'
p1872
I2
sS'suitable'
p1873
I1
sS'golden'
p1874
I3
sS'fantastic'
p1875
I6
sS'secure'
p1876
I1
sS'brought'
p1877
I1
sS'lavatory'
p1878
I1
sS'guests'
p1879
I3
sS'total'
p1880
I1
sS'landscape'
p1881
I1
sS'would'
p1882
I33
sS'army'
p1883
I2
sS'music'
p1884
I1
sS'calm'
p1885
I2
sS'recommend'
p1886
I12
sS'tell'
p1887
I1
sS'females'
p1888
I1
sS'relax'
p1889
I12
sS'phone'
p1890
I3
sS'warm'
p1891
I3
sS'excellent'
p1892
I10
sS'outdated'
p1893
I1
sS'authentically'
p1894
I1
sS'abundance'
p1895
I1
sS'tastefully'
p1896
I1
sS'room'
p1897
I110
sS'candelabra'
p1898
I1
sS'famed'
p1899
I1
sS'work'
p1900
I5
sS'roof'
p1901
I1
sS'movies'
p1902
I2
sS'era'
p1903
I1
sS'already'
p1904
I1
sS'elegantly'
p1905
I1
sS'omelets'
p1906
I1
sS'give'
p1907
I2
sS'organized'
p1908
I2
sS'bellman'
p1909
I1
sS'foods'
p1910
I1
sS'want'
p1911
I6
sS'times'
p1912
I11
sS'absolute'
p1913
I1
sS'provide'
p1914
I1
sS'travel'
p1915
I7
sS'chcoclate'
p1916
I1
sS'feature'
p1917
I1
sS'revisit'
p1918
I1
sS'hot'
p1919
I11
sS'adjacent'
p1920
I1
sS'boats'
p1921
I1
sS'gate'
p1922
I3
sS'beach'
p1923
I25
sS'pizza'
p1924
I1
sS'description'
p1925
I1
sS'earlier'
p1926
I2
sS'decor'
p1927
I9
sS'customs'
p1928
I1
sS'wrong'
p1929
I2
sS'las'
p1930
I5
sS'purchase'
p1931
I1
sS'attempt'
p1932
I1
sS'pullout'
p1933
I1
sS'frequent'
p1934
I2
sS'enter'
p1935
I2
sS'order'
p1936
I6
sS'office'
p1937
I1
sS'deck'
p1938
I2
sS'welcomed'
p1939
I1
sS'walgreens'
p1940
I1
sS'satisfied'
p1941
I1
sS'jacuzzi'
p1942
I2
sS'responsive'
p1943
I1
sS'priciest'
p1944
I1
sS'wrought'
p1945
I1
sS'fit'
p1946
I1
sS'surpise'
p1947
I1
sS'highlights'
p1948
I1
sS'expectations'
p1949
I2
sS'denver'
p1950
I1
sS'better'
p1951
I7
sS'strand'
p1952
I1
sS'glanced'
p1953
I1
sS'coffee'
p1954
I7
sS'tourist'
p1955
I3
sS'combination'
p1956
I1
sS'workout'
p1957
I1
sS'safe'
p1958
I2
sS'break'
p1959
I2
sS'rocks'
p1960
I1
sS'filling'
p1961
I1
sS'spotless'
p1962
I1
sS'mead'
p1963
I2
sS'reasonable'
p1964
I4
sS'fitness'
p1965
I2
sS'went'
p1966
I17
sS'meal'
p1967
I2
sS'concord'
p1968
I1
sS'bowls'
p1969
I1
sS'fairmont'
p1970
I1
sS'dawn'
p1971
I1
sS'driving'
p1972
I1
sS'open'
p1973
I3
sS'motel'
p1974
I6
sS'washed'
p1975
I1
sS'sand'
p1976
I1
sS'content'
p1977
I1
sS'heavenly'
p1978
I1
sS'got'
p1979
I6
sS'newly'
p1980
I2
sS'taos'
p1981
I2
sS'given'
p1982
I1
sS'free'
p1983
I16
sS'returning'
p1984
I1
sS'greeted'
p1985
I6
sS'ate'
p1986
I2
sS'created'
p1987
I1
sS'inexpensive'
p1988
I1
sS'days'
p1989
I5
sS'creates'
p1990
I1
sS'shipped'
p1991
I1
sS'reserving'
p1992
I1
sS'loud'
p1993
I1
sS'duval'
p1994
I1
sS'daunting'
p1995
I1
sS'features'
p1996
I2
sS'attractions'
p1997
I6
sS'featured'
p1998
I2
sS'floors'
p1999
I4
sS'delicious'
p2000
I8
sS'comforter'
p2001
I1
sS'thick'
p2002
I1
sS'basketball'
p2003
I1
sS'aire'
p2004
I3
sS'service'
p2005
I25
sS'venodors'
p2006
I1
sS'top'
p2007
I2
sS'girls'
p2008
I1
sS'elevator'
p2009
I2
sS'plentiful'
p2010
I1
sS'needed'
p2011
I2
sS'rates'
p2012
I4
sS'wildly'
p2013
I1
sS'quinta'
p2014
I3
sS'dogs'
p2015
I3
sS'ceiling'
p2016
I1
sS'gym'
p2017
I1
sS'took'
p2018
I4
sS'cereal'
p2019
I3
sS'positively'
p2020
I1
sS'distance'
p2021
I11
sS'surrounding'
p2022
I1
sS'second'
p2023
I1
sS'shower'
p2024
I6
sS'matter'
p2025
I2
sS'fabulous'
p2026
I5
sS'speaking'
p2027
I1
sS'iron'
p2028
I2
sS'feeling'
p2029
I1
sS'mini'
p2030
I3
sS'sorrento'
p2031
I1
sS'boston'
p2032
I2
sS'modern'
p2033
I6
sS'mind'
p2034
I1
sS'mine'
p2035
I2
sS'seen'
p2036
I1
sS'quieter'
p2037
I1
sS'convenient'
p2038
I7
sS'snow'
p2039
I3
sS'elegance'
p2040
I1
sS'bengal'
p2041
I2
sS'recommended'
p2042
I1
sS'luxury'
p2043
I3
sS'gravy'
p2044
I1
sS'though'
p2045
I7
sS'victoria'
p2046
I1
sS'extending'
p2047
I1
sS'regular'
p2048
I1
sS'plenty'
p2049
I4
sS'treats'
p2050
I1
sS'dog'
p2051
I3
sS'definitely'
p2052
I13
sS'entertaining'
p2053
I1
sS'came'
p2054
I2
sS'renting'
p2055
I1
sS'contacted'
p2056
I1
sS'queen'
p2057
I2
sS'earth'
p2058
I1
sS'enjoyed'
p2059
I11
sS'toast'
p2060
I1
sS'orleans'
p2061
I1
sS'busy'
p2062
I1
sS'layout'
p2063
I1
sS'quaint'
p2064
I2
sS'menu'
p2065
I3
sS'weekends'
p2066
I2
sS'folded'
p2067
I1
sS'rico'
p2068
I1
sS'theme'
p2069
I1
sS'lodge'
p2070
I1
sS'adequate'
p2071
I1
sS'monica'
p2072
I1
sS'colorful'
p2073
I1
sS'watch'
p2074
I3
sS'cardinals'
p2075
I1
sS'coast'
p2076
I2
sS'haunted'
p2077
I1
sS'wedding'
p2078
I1
sS'bridge'
p2079
I2
sS'runs'
p2080
I2
sS'bar'
p2081
I15
sS'die'
p2082
I1
sS'nicely'
p2083
I2
sS'bay'
p2084
I1
sS'twice'
p2085
I1
sS'bad'
p2086
I3
sS'architecture'
p2087
I2
sS'told'
p2088
I2
sS'ruins'
p2089
I1
sS'thanks'
p2090
I1
sS'fascinating'
p2091
I2
sS'fluffy'
p2092
I2
sS'restaraunts'
p2093
I1
sS'decided'
p2094
I8
sS'best'
p2095
I22
sS'pete'
p2096
I2
sS'said'
p2097
I2
sS'lots'
p2098
I2
sS'away'
p2099
I17
sS'interviewing'
p2100
I1
sS'uppity'
p2101
I1
sS'pets'
p2102
I2
sS'sorts'
p2103
I1
sS'encounters'
p2104
I1
sS'pirate'
p2105
I1
sS'privilege'
p2106
I1
sS'lazy'
p2107
I1
sS'smelled'
p2108
I2
sS'however'
p2109
I3
sS'wi'
p2110
I1
sS'aquarium'
p2111
I3
sS'packages'
p2112
I2
sS'kitchen'
p2113
I3
sS'climate'
p2114
I1
sS'cot'
p2115
I1
sS'country'
p2116
I1
sS'gasped'
p2117
I1
sS'planned'
p2118
I1
sS'faces'
p2119
I1
sS'expense'
p2120
I1
sS'asked'
p2121
I3
sS'tons'
p2122
I3
sS'towels'
p2123
I6
sS'majestic'
p2124
I1
sS'loaded'
p2125
I1
sS'conference'
p2126
I5
sS'bathroom'
p2127
I16
sS'union'
p2128
I4
sS'dusting'
p2129
I1
sS'three'
p2130
I4
sS'quickly'
p2131
I5
sS'beer'
p2132
I1
sS'much'
p2133
I8
sS'stadium'
p2134
I2
sS'expected'
p2135
I2
sS'entered'
p2136
I3
sS'lovely'
p2137
I2
sS'threw'
p2138
I1
sS'website'
p2139
I2
sS'life'
p2140
I5
sS'families'
p2141
I4
sS'recomend'
p2142
I1
sS'relaxing'
p2143
I4
sS'lauderdale'
p2144
I2
sS'child'
p2145
I1
sS'catch'
p2146
I1
sS'galvez'
p2147
I3
sS'worked'
p2148
I2
sS'chill'
p2149
I1
sS'professionally'
p2150
I2
sS'air'
p2151
I5
sS'near'
p2152
I7
sS'neat'
p2153
I1
sS'property'
p2154
I3
sS'pyramid'
p2155
I2
sS'exceptionally'
p2156
I1
sS'upscale'
p2157
I2
sS'cucumbers'
p2158
I1
sS'exterior'
p2159
I1
sS'ginza'
p2160
I1
sS'seattle'
p2161
I2
sS'make'
p2162
I9
sS'airport'
p2163
I2
sS'plated'
p2164
I1
sS'beside'
p2165
I1
sS'split'
p2166
I1
sS'babies'
p2167
I1
sS'several'
p2168
I10
sS'fairly'
p2169
I1
sS'hand'
p2170
I2
sS'characters'
p2171
I1
sS'opportunity'
p2172
I2
sS'kid'
p2173
I2
sS'butter'
p2174
I2
sS'kept'
p2175
I6
sS'ocean'
p2176
I7
sS'burgers'
p2177
I1
sS'hearty'
p2178
I1
sS'greatest'
p2179
I2
sS'alabama'
p2180
I1
sS'corporate'
p2181
I2
sS'massaging'
p2182
I1
sS'left'
p2183
I5
sS'thumbs'
p2184
I1
sS'yet'
p2185
I3
sS'note'
p2186
I1
sS'hills'
p2187
I1
sS'dining'
p2188
I5
sS'royal'
p2189
I2
sS'spread'
p2190
I1
sS'board'
p2191
I1
sS'easy'
p2192
I3
sS'save'
p2193
I1
sS'gave'
p2194
I3
sS'lcd'
p2195
I1
sS'sanitary'
p2196
I1
sS'unique'
p2197
I2
sS'personalized'
p2198
I1
sS'gift'
p2199
I1
sS'informative'
p2200
I1
sS'offices'
p2201
I1
sS'night'
p2202
I24
sS'hung'
p2203
I1
sS'security'
p2204
I2
sS'right'
p2205
I17
sS'old'
p2206
I5
sS'creek'
p2207
I3
sS'deal'
p2208
I4
sS'people'
p2209
I3
sS'clubs'
p2210
I1
sS'hoover'
p2211
I1
sS'hassle'
p2212
I1
sS'poolside'
p2213
I1
sS'dear'
p2214
I2
sS'multiple'
p2215
I1
sS'phenomenal'
p2216
I1
sS'microwave'
p2217
I2
sS'everything'
p2218
I14
sS'christmas'
p2219
I2
sS'booking'
p2220
I2
sS'discount'
p2221
I5
sS'paid'
p2222
I2
sS'memorable'
p2223
I1
sS'super'
p2224
I1
sS'months'
p2225
I1
sS'burbank'
p2226
I1
sS'costs'
p2227
I1
sS'dinner'
p2228
I3
sS'plus'
p2229
I4
sS'afternoon'
p2230
I1
sS'islands'
p2231
I1
sS'curry'
p2232
I1
sS'honeymoon'
p2233
I1
sS'delighted'
p2234
I1
sS'son'
p2235
I2
sS'lies'
p2236
I1
sS'refined'
p2237
I2
sS'hotle'
p2238
I1
sS'cleared'
p2239
I1
sS'tennis'
p2240
I1
sS'stuck'
p2241
I1
sS'way'
p2242
I8
sS'call'
p2243
I2
sS'happy'
p2244
I2
sS'head'
p2245
I1
sS'offering'
p2246
I1
sS'offer'
p2247
I2
sS'wireless'
p2248
I1
sS'surrender'
p2249
I1
sS'true'
p2250
I2
sS'fort'
p2251
I1
sS'paneled'
p2252
I1
sS'responding'
p2253
I1
sS'inside'
p2254
I7
sS'attached'
p2255
I1
sS'bargain'
p2256
I2
sS'crystal'
p2257
I3
sS'southernmost'
p2258
I1
sS'inclusive'
p2259
I2
sS'clive'
p2260
I1
sS'saltwater'
p2261
I1
sS'ship'
p2262
I1
sS'trip'
p2263
I14
sS'nh'
p2264
I1
sS'waldorf'
p2265
I1
sS'floor'
p2266
I8
sS'accomodating'
p2267
I2
sS'generally'
p2268
I1
sS'reality'
p2269
I2
sS'ny'
p2270
I2
sS'setting'
p2271
I1
sS'soundly'
p2272
I1
sS'smell'
p2273
I1
sS'roll'
p2274
I1
sS'palms'
p2275
I1
sS'wing'
p2276
I1
sS'surprise'
p2277
I2
sS'welcome'
p2278
I4
sS'polite'
p2279
I3
sS'trailers'
p2280
I1
sS'fell'
p2281
I2
sS'weekend'
p2282
I6
sS'glass'
p2283
I1
sS'daily'
p2284
I1
sS'accented'
p2285
I1
sS'beds'
p2286
I14
sS'reception'
p2287
I2
sS'time'
p2288
I29
sS'decision'
p2289
I1
sS'japan'
p2290
I2
sS'themed'
p2291
I2
sS'dance'
p2292
I1
sS'mile'
p2293
I1
sS'ice'
p2294
I1
sS'skin'
p2295
I1
sS'milk'
p2296
I1
sS'roanoke'
p2297
I2
sS'certainly'
p2298
I4
sS'environment'
p2299
I1
sS'answered'
p2300
I1
sS'charge'
p2301
I1
sS'choice'
p2302
I1
sS'vegas'
p2303
I11
sS'bustle'
p2304
I1
sS'stays'
p2305
I1
sS'trouble'
p2306
I2
sS'blast'
p2307
I2
sS'minute'
p2308
I2
sS'cool'
p2309
I1
sS'impressive'
p2310
I1
sS'level'
p2311
I3
sS'turns'
p2312
I1
sS'hawaii'
p2313
I1
sS'minnie'
p2314
I1
sS'standards'
p2315
I1
sS'leave'
p2316
I1
sS'planning'
p2317
I1
sS'subway'
p2318
I2
sS'team'
p2319
I1
sS'quick'
p2320
I11
sS'dip'
p2321
I1
sS'round'
p2322
I5
sS'unaware'
p2323
I1
sS'upper'
p2324
I2
sS'mn'
p2325
I1
sS'akihabara'
p2326
I1
sS'cost'
p2327
I3
sS'worn'
p2328
I1
sS'drinks'
p2329
I6
sS'cleanliness'
p2330
I2
sS'remain'
p2331
I1
sS'keepsakes'
p2332
I1
sS'margaritaville'
p2333
I2
sS'international'
p2334
I1
sS'appeal'
p2335
I1
sS'filled'
p2336
I1
sS'transportation'
p2337
I1
sS'exercize'
p2338
I1
sS'clerk'
p2339
I4
sS'french'
p2340
I2
sS'water'
p2341
I19
sS'snack'
p2342
I1
sS'alone'
p2343
I1
sS'along'
p2344
I2
sS'roaring'
p2345
I1
sS'change'
p2346
I1
sS'wait'
p2347
I2
sS'boy'
p2348
I1
sS'bygone'
p2349
I1
sS'boast'
p2350
I1
sS'marble'
p2351
I2
sS'historical'
p2352
I1
sS'bon'
p2353
I3
sS'usually'
p2354
I1
sS'conveniently'
p2355
I4
sS'montreal'
p2356
I1
sS'breathtaking'
p2357
I2
sS'love'
p2358
I8
sS'extra'
p2359
I3
sS'marvelous'
p2360
I1
sS'market'
p2361
I2
sS'hotels'
p2362
I18
sS'handled'
p2363
I1
sS'working'
p2364
I2
sS'positive'
p2365
I1
sS'hyatt'
p2366
I3
sS'visit'
p2367
I9
sS'fairfield'
p2368
I1
sS'live'
p2369
I5
sS'going'
p2370
I7
sS'checkout'
p2371
I2
sS'entrance'
p2372
I1
sS'club'
p2373
I1
sS'apparent'
p2374
I1
sS'oregon'
p2375
I1
sS'chocolate'
p2376
I2
sS'downtown'
p2377
I7
sS'mansfield'
p2378
I1
sS'fly'
p2379
I1
sS'tokyo'
p2380
I10
sS'car'
p2381
I3
sS'originally'
p2382
I1
sS'reviews'
p2383
I2
sS'wallet'
p2384
I1
sS'values'
p2385
I1
sS'ferry'
p2386
I2
sS'centrally'
p2387
I1
sS'heart'
p2388
I1
sS'crazy'
p2389
I1
sS'awesome'
p2390
I3
sS'nascar'
p2391
I1
sS'concierge'
p2392
I1
sS'heard'
p2393
I1
sS'incredible'
p2394
I3
sS'sandbar'
p2395
I3
sS'spa'
p2396
I4
sS'winter'
p2397
I1
sS'means'
p2398
I1
sS'pine'
p2399
I1
sS'lounge'
p2400
I2
sS'pure'
p2401
I1
sS'tile'
p2402
I1
sS'economy'
p2403
I2
sS'staying'
p2404
I16
sS'mar'
p2405
I2
sS'cocktail'
p2406
I1
sS'information'
p2407
I1
sS'may'
p2408
I2
sS'motorway'
p2409
I1
sS'birthday'
p2410
I3
sS'floral'
p2411
I1
sS'partake'
p2412
I1
sS'data'
p2413
I1
sS'man'
p2414
I1
sS'goreous'
p2415
I1
sS'remember'
p2416
I2
sS'johnson'
p2417
I1
sS'whenever'
p2418
I1
sS'slightly'
p2419
I1
sS'ueno'
p2420
I1
sS'switch'
p2421
I2
sS'lagoon'
p2422
I1
sS'sc'
p2423
I1
sS'tall'
p2424
I1
sS'sf'
p2425
I1
sS'typical'
p2426
I1
sS'furnished'
p2427
I2
sS'midnight'
p2428
I1
sS'years'
p2429
I2
sS'ended'
p2430
I1
sS'still'
p2431
I4
sS'birds'
p2432
I1
sS'splurge'
p2433
I1
sS'supplemented'
p2434
I1
sS'interesting'
p2435
I1
sS'bagels'
p2436
I1
sS'amazing'
p2437
I24
sS'heated'
p2438
I1
sS'attraction'
p2439
I1
sS'window'
p2440
I1
sS'offers'
p2441
I4
sS'spacious'
p2442
I11
sS'farmer'
p2443
I1
sS'main'
p2444
I6
sS'texas'
p2445
I1
sS'non'
p2446
I1
sS'tropicana'
p2447
I3
sS'views'
p2448
I2
sS'sooner'
p2449
I1
sS'lunch'
p2450
I1
sS'half'
p2451
I1
sS'arriving'
p2452
I2
sS'bath'
p2453
I4
sS'name'
p2454
I2
sS'drop'
p2455
I1
sS'rock'
p2456
I1
sS'entirely'
p2457
I1
sS'concerts'
p2458
I1
sS'square'
p2459
I6
sS'goose'
p2460
I1
sS'entering'
p2461
I1
sS'year'
p2462
I10
sS'girl'
p2463
I1
sS'myrtle'
p2464
I2
sS'tried'
p2465
I1
sS'living'
p2466
I2
sS'ultimately'
p2467
I1
sS'space'
p2468
I3
sS'furthermore'
p2469
I1
sS'looking'
p2470
I7
sS'seriously'
p2471
I1
sS'miles'
p2472
I1
sS'emerged'
p2473
I1
sS'internet'
p2474
I3
sS'cars'
p2475
I1
sS'quite'
p2476
I6
sS'california'
p2477
I1
sS'card'
p2478
I2
sS'british'
p2479
I1
sS'thing'
p2480
I4
sS'butterflies'
p2481
I1
sS'place'
p2482
I37
sS'invitation'
p2483
I1
sS'charleston'
p2484
I1
sS'think'
p2485
I1
sS'drink'
p2486
I1
sS'first'
p2487
I22
sS'cheese'
p2488
I2
sS'initial'
p2489
I1
sS'impossibly'
p2490
I1
sS'crib'
p2491
I1
sS'one'
p2492
I32
sS'long'
p2493
I2
sS'ring'
p2494
I1
sS'drove'
p2495
I1
sS'xv'
p2496
I1
sS'size'
p2497
I7
sS'city'
p2498
I14
sS'little'
p2499
I6
sS'checked'
p2500
I1
sS'district'
p2501
I6
sS'phenix'
p2502
I2
sS'slept'
p2503
I3
sS'anyone'
p2504
I9
sS'convention'
p2505
I1
sS'white'
p2506
I3
sS'friend'
p2507
I4
sS'exploring'
p2508
I1
sS'hub'
p2509
I1
sS'hut'
p2510
I1
sS'ginormous'
p2511
I1
sS'flowers'
p2512
I1
sS'appreciated'
p2513
I1
sS'television'
p2514
I1
sS'unfortunately'
p2515
I1
sS'scrumptious'
p2516
I1
sS'victorian'
p2517
I1
sS'future'
p2518
I3
sS'venture'
p2519
I2
sS'asleep'
p2520
I1
sS'wandering'
p2521
I1
sS'san'
p2522
I6
sS'nicer'
p2523
I2
sS'turned'
p2524
I1
sS'sad'
p2525
I2
sS'say'
p2526
I2
sS'breakfast'
p2527
I29
sS'saw'
p2528
I2
sS'form'
p2529
I2
sS'ideas'
p2530
I1
sS'zoo'
p2531
I1
sS'terrific'
p2532
I1
sS'equipment'
p2533
I1
sS'ideal'
p2534
I2
sS'take'
p2535
I8
sS'online'
p2536
I1
sS'interior'
p2537
I2
sS'roomiest'
p2538
I1
sS'begin'
p2539
I1
sS'sure'
p2540
I3
sS'straightening'
p2541
I1
sS'theatre'
p2542
I1
sS'normal'
p2543
I1
sS'price'
p2544
I15
sS'knew'
p2545
I1
sS'buffet'
p2546
I6
sS'falls'
p2547
I1
sS'sheets'
p2548
I3
sS'complaints'
p2549
I2
sS'america'
p2550
I3
sS'thsi'
p2551
I1
sS'peninsula'
p2552
I1
sS'beachfront'
p2553
I1
sS'especially'
p2554
I5
sS'average'
p2555
I1
sS'later'
p2556
I1
sS'drive'
p2557
I4
sS'playing'
p2558
I2
sS'microtel'
p2559
I1
sS'professional'
p2560
I2
sS'salt'
p2561
I1
sS'luxor'
p2562
I1
sS'shop'
p2563
I1
sS'walking'
p2564
I12
sS'wynn'
p2565
I2
sS'show'
p2566
I2
sS'cheap'
p2567
I4
sS'contemporary'
p2568
I1
sS'bright'
p2569
I4
sS'corner'
p2570
I1
sS'crashing'
p2571
I1
sS'upgrade'
p2572
I2
sS'gulf'
p2573
I1
sS'written'
p2574
I1
sS'lansing'
p2575
I2
sS'wood'
p2576
I2
sS'hockey'
p2577
I1
sS'equipped'
p2578
I1
sS'watching'
p2579
I1
sS'carolina'
p2580
I1
sS'televisions'
p2581
I1
sS'get'
p2582
I18
sS'jazz'
p2583
I2
sS'truly'
p2584
I1
sS'celebrate'
p2585
I1
sS'leather'
p2586
I1
sS'morning'
p2587
I5
sS'tiki'
p2588
I1
sS'embassy'
p2589
I3
sS'husband'
p2590
I12
sS'arrival'
p2591
I2
sS'breslin'
p2592
I1
sS'station'
p2593
I5
sS'cocktails'
p2594
I1
sS'college'
p2595
I2
sS'parking'
p2596
I9
sS'concern'
p2597
I1
sS'suspects'
p2598
I1
sS'ways'
p2599
I1
sS'definite'
p2600
I1
sS'outside'
p2601
I4
sS'skyscraper'
p2602
I1
sS'refreshed'
p2603
I2
sS'across'
p2604
I6
sS'affordable'
p2605
I5
sS'notice'
p2606
I2
sS'tup'
p2607
I1
sS'screen'
p2608
I6
sS'jr'
p2609
I1
sS'coma'
p2610
I1
sS'tub'
p2611
I2
sS'come'
p2612
I2
sS'coupons'
p2613
I1
sS'many'
p2614
I18
sS'ballpark'
p2615
I1
sS'quiet'
p2616
I9
sS'somewhere'
p2617
I1
sS'tour'
p2618
I2
sS'patrons'
p2619
I1
sS'dated'
p2620
I1
sS'nearby'
p2621
I4
sS'endless'
p2622
I1
sS'period'
p2623
I1
sS'oxnard'
p2624
I2
sS'sampling'
p2625
I1
sS'twin'
p2626
I1
sS'boat'
p2627
I1
sS'considering'
p2628
I3
sS'howard'
p2629
I1
sS'west'
p2630
I5
sS'vacation'
p2631
I14
sS'tropical'
p2632
I1
sS'combined'
p2633
I2
sS'peaceful'
p2634
I5
sS'featuring'
p2635
I1
sS'wants'
p2636
I1
sS'shopping'
p2637
I8
sS'offered'
p2638
I11
sS'regency'
p2639
I2
sS'wake'
p2640
I2
sS'attentive'
p2641
I1
sS'sound'
p2642
I1
sS'accommodating'
p2643
I6
sS'residence'
p2644
I1
sS'beachside'
p2645
I1
sS'shops'
p2646
I8
sS'penthouse'
p2647
I1
sS'ive'
p2648
I2
sS'bathrooms'
p2649
I4
sS'candies'
p2650
I1
sS'sleeping'
p2651
I3
sS'middle'
p2652
I5
sS'someone'
p2653
I1
sS'capping'
p2654
I1
sS'toiletry'
p2655
I1
sS'everyday'
p2656
I4
sS'worry'
p2657
I1
sS'bags'
p2658
I2
sS'different'
p2659
I6
sS'pay'
p2660
I2
sS'cabana'
p2661
I1
sS'check'
p2662
I11
sS'bowels'
p2663
I1
sS'lucian'
p2664
I1
sS'events'
p2665
I1
sS'week'
p2666
I4
sS'extended'
p2667
I1
sS'closest'
p2668
I1
sS'assist'
p2669
I1
sS'driven'
p2670
I3
sS'running'
p2671
I1
sS'fruit'
p2672
I4
sS'climbing'
p2673
I1
sS'westin'
p2674
I6
sS'largely'
p2675
I1
sS'without'
p2676
I4
sS'bottle'
p2677
I1
sS'model'
p2678
I1
sS'hubby'
p2679
I1
sS'amazed'
p2680
I1
sS'consisted'
p2681
I1
sS'taxi'
p2682
I1
sS'summer'
p2683
I5
sS'outdoor'
p2684
I1
sS'marriot'
p2685
I1
sS'money'
p2686
I7
sS'sights'
p2687
I1
sS'rest'
p2688
I1
sS'touch'
p2689
I1
sS'dipped'
p2690
I1
sS'thinking'
p2691
I1
sS'treatment'
p2692
I1
sS'ghostly'
p2693
I1
sS'pot'
p2694
I1
sS'real'
p2695
I2
sS'around'
p2696
I9
sS'spectacular'
p2697
I1
sS'virginia'
p2698
I2
sS'dark'
p2699
I2
sS'traffic'
p2700
I1
sS'venues'
p2701
I1
sS'politely'
p2702
I1
sS'world'
p2703
I4
sS'accepted'
p2704
I1
sS'blankets'
p2705
I1
sS'alpharetta'
p2706
I1
sS'partaking'
p2707
I1
sS'maintained'
p2708
I1
sS'either'
p2709
I3
sS'fully'
p2710
I2
sS'served'
p2711
I1
sS'tower'
p2712
I3
sS'competition'
p2713
I1
sS'divine'
p2714
I1
sS'provided'
p2715
I4
sS'shinjuku'
p2716
I1
sS'caribbean'
p2717
I1
sS'mood'
p2718
I1
sS'memories'
p2719
I1
sS'stops'
p2720
I2
sS'provides'
p2721
I1
sS'hustle'
p2722
I1
sS'emmaculate'
p2723
I1
sS'felt'
p2724
I6
sS'business'
p2725
I4
sS'chefs'
p2726
I1
sS'binghamton'
p2727
I1
sS'found'
p2728
I4
sS'exciting'
p2729
I1
sS'throw'
p2730
I1
sS'beaches'
p2731
I1
sS'stone'
p2732
I2
sS'package'
p2733
I1
sS'island'
p2734
I3
sS'teddy'
p2735
I1
sS'favorite'
p2736
I4
sS'side'
p2737
I4
sS'structured'
p2738
I1
sS'unseasonable'
p2739
I1
sS'wolf'
p2740
I1
sS'act'
p2741
I1
sS'marriott'
p2742
I3
sS'comforters'
p2743
I1
sS'empress'
p2744
I3
sS'lively'
p2745
I1
sS'sycuan'
p2746
I1
sS'prepare'
p2747
I1
sS'area'
p2748
I25
sS'distracted'
p2749
I1
sS'lounging'
p2750
I3
sS'start'
p2751
I1
sS'low'
p2752
I1
sS'stars'
p2753
I1
sS'energy'
p2754
I1
sS'immaculate'
p2755
I2
sS'mornings'
p2756
I2
sS'complete'
p2757
I2
sS'enough'
p2758
I4
sS'tranquility'
p2759
I1
sS'amongst'
p2760
I1
sS'walkway'
p2761
I1
sS'pitched'
p2762
I1
sS'downstairs'
p2763
I4
sS'pull'
p2764
I1
sS'rush'
p2765
I2
sS'romantic'
p2766
I1
sS'planters'
p2767
I2
sS'drwaback'
p2768
I1
sS'dirty'
p2769
I1
sS'trips'
p2770
I3
sS'toilet'
p2771
I1
sS'shiodome'
p2772
I3
sS'taste'
p2773
I1
sS'minneapolis'
p2774
I2
sS'together'
p2775
I1
sS'girlfriend'
p2776
I2
sS'lifetime'
p2777
I1
sS'unparalleled'
p2778
I1
sS'evenings'
p2779
I2
sS'poor'
p2780
I1
sS'requested'
p2781
I3
sS'games'
p2782
I1
sS'separate'
p2783
I4
sS'slant'
p2784
I1
sS'gifts'
p2785
I1
sS'important'
p2786
I1
sS'massachusetts'
p2787
I1
sS'included'
p2788
I6
sS'decorated'
p2789
I3
sS'pool'
p2790
I31
sS'building'
p2791
I7
sS'tiger'
p2792
I1
sS'booked'
p2793
I7
sS'calls'
p2794
I1
sS'wife'
p2795
I3
sS'wifi'
p2796
I2
sS'god'
p2797
I1
sS'transports'
p2798
I1
sS'surrounded'
p2799
I1
sS'forget'
p2800
I1
sS'lack'
p2801
I1
sS'children'
p2802
I8
sS'preserves'
p2803
I1
sS'tv'
p2804
I11
sS'lining'
p2805
I1
sS'th'
p2806
I1
sS'enjoying'
p2807
I6
sS'roadway'
p2808
I1
sS'activities'
p2809
I4
sS'premium'
p2810
I1
sS'sitting'
p2811
I2
sS'far'
p2812
I4
sS'fav'
p2813
I1
sS'fall'
p2814
I2
sS'condition'
p2815
I1
sS'heaven'
p2816
I2
sS'cable'
p2817
I2
sS'louis'
p2818
I1
sS'celebrity'
p2819
I2
sS'laying'
p2820
I1
sS'joined'
p2821
I1
sS'large'
p2822
I15
sS'benning'
p2823
I1
sS'small'
p2824
I13
sS'cookies'
p2825
I2
sS'neighborhood'
p2826
I1
sS'ten'
p2827
I1
sS'tea'
p2828
I1
sS'past'
p2829
I1
sS'intricate'
p2830
I1
sS'rate'
p2831
I4
sS'design'
p2832
I1
sS'situated'
p2833
I1
sS'stood'
p2834
I1
sS'sun'
p2835
I2
sS'full'
p2836
I8
sS'tags'
p2837
I1
sS'hours'
p2838
I2
sS'beacon'
p2839
I2
sS'relaxation'
p2840
I1
sS'steamships'
p2841
I1
sS'colored'
p2842
I3
sS'riviera'
p2843
I3
sS'allows'
p2844
I1
sS'experience'
p2845
I23
sS'amount'
p2846
I1
sS'action'
p2847
I1
sS'options'
p2848
I5
sS'family'
p2849
I13
sS'mexican'
p2850
I1
sS'put'
p2851
I1
sS'trained'
p2852
I1
sS'wanted'
p2853
I2
sS'takes'
p2854
I1
sS'two'
p2855
I11
sS'pearl'
p2856
I1
sS'amenities'
p2857
I10
sS'gorgeous'
p2858
I5
sS'taken'
p2859
I3
sS'flat'
p2860
I6
sS'door'
p2861
I4
sS'brisk'
p2862
I1
sS'surprisingly'
p2863
I1
sS'known'
p2864
I1
sS'glad'
p2865
I1
sS'town'
p2866
I3
sS'grill'
p2867
I3
sS'keeping'
p2868
I1
sS'hour'
p2869
I2
sS'mall'
p2870
I6
sS'mo'
p2871
I1
sS'history'
p2872
I1
sS'beautiful'
p2873
I21
sS'mascone'
p2874
I1
sS'prompt'
p2875
I3
sS'pond'
p2876
I1
sS'huge'
p2877
I6
sS'needs'
p2878
I3
sS'answer'
p2879
I1
sS'court'
p2880
I1
sS'terribly'
p2881
I1
sS'rather'
p2882
I1
sS'comfort'
p2883
I3
sS'stayed'
p2884
I36
sS'freshly'
p2885
I1
sS'motels'
p2886
I1
sS'plans'
p2887
I1
sS'advice'
p2888
I1
sS'polynesian'
p2889
I2
sS'coming'
p2890
I2
sS'fi'
p2891
I1
sS'short'
p2892
I4
sS'toiletries'
p2893
I1
sS'overnight'
p2894
I2
sS'grande'
p2895
I3
sS'media'
p2896
I1
sS'pleasure'
p2897
I3
sS'rentals'
p2898
I2
sS'retrieval'
p2899
I1
sS'pans'
p2900
I1
sS'rounded'
p2901
I1
sS'help'
p2902
I2
sS'soon'
p2903
I4
sS'anehiem'
p2904
I1
sS'held'
p2905
I1
sS'paper'
p2906
I1
sS'hell'
p2907
I1
sS'smiling'
p2908
I1
sS'style'
p2909
I1
sS'termed'
p2910
I1
sS'actually'
p2911
I5
sS'late'
p2912
I4
sS'resort'
p2913
I16
sS'bummer'
p2914
I1
sS'nifty'
p2915
I1
sS'penn'
p2916
I2
sS'travelling'
p2917
I1
sS'might'
p2918
I1
sS'hurting'
p2919
I1
sS'good'
p2920
I13
sS'return'
p2921
I2
sS'seeking'
p2922
I1
sS'food'
p2923
I18
sS'males'
p2924
I1
sS'walls'
p2925
I4
sS'starbucks'
p2926
I2
sS'complain'
p2927
I1
sS'easily'
p2928
I2
sS'everytime'
p2929
I1
sS'always'
p2930
I19
sS'goofy'
p2931
I1
sS'stopped'
p2932
I1
sS'teas'
p2933
I1
sS'accommodated'
p2934
I1
sS'biscuits'
p2935
I1
sS'heavy'
p2936
I1
sS'everyone'
p2937
I3
sS'england'
p2938
I1
sS'another'
p2939
I5
sS'house'
p2940
I3
sS'fish'
p2941
I1
sS'hard'
p2942
I1
sS'idea'
p2943
I2
sS'brother'
p2944
I2
sS'exorbitant'
p2945
I1
sS'expect'
p2946
I2
sS'traveler'
p2947
I2
sS'portland'
p2948
I1
sS'beyond'
p2949
I2
sS'event'
p2950
I3
sS'really'
p2951
I12
sS'lovers'
p2952
I1
sS'linens'
p2953
I3
sS'since'
p2954
I5
sS'douglas'
p2955
I1
sS'research'
p2956
I1
sS'fountain'
p2957
I1
sS'hill'
p2958
I1
sS'paradise'
p2959
I1
sS'hangers'
p2960
I1
sS'issue'
p2961
I2
sS'voss'
p2962
I1
sS'pleasant'
p2963
I8
sS'extraordinary'
p2964
I1
sS'reason'
p2965
I2
sS'disneyland'
p2966
I1
sS'abeyance'
p2967
I1
sS'ask'
p2968
I2
sS'bumped'
p2969
I1
sS'owners'
p2970
I1
sS'benefits'
p2971
I1
sS'needing'
p2972
I1
sS'lotions'
p2973
I1
sS'benedict'
p2974
I1
sS'expecting'
p2975
I1
sS'w'
p2976
I2
sS'rainforest'
p2977
I2
sS'castle'
p2978
I2
sS'major'
p2979
I1
sS'slipped'
p2980
I1
sS'feel'
p2981
I9
sS'doughnuts'
p2982
I1
sS'number'
p2983
I1
sS'traveled'
p2984
I1
sS'feet'
p2985
I1
sS'ironing'
p2986
I1
sS'soaps'
p2987
I1
sS'koi'
p2988
I1
sS'story'
p2989
I1
sS'heads'
p2990
I1
sS'guest'
p2991
I4
sS'gourmet'
p2992
I2
sS'comfy'
p2993
I2
sS'least'
p2994
I3
sS'paint'
p2995
I1
sS'wonderful'
p2996
I11
sS'passed'
p2997
I1
sS'store'
p2998
I2
sS'gps'
p2999
I1
sS'attendants'
p3000
I2
sS'warmly'
p3001
I2
sS'option'
p3002
I1
sS'behind'
p3003
I1
sS'hotel'
p3004
I178
sS'park'
p3005
I12
sS'luckily'
p3006
I1
sS'part'
p3007
I4
sS'believe'
p3008
I2
sS'tapestries'
p3009
I1
sS'king'
p3010
I4
sS'kind'
p3011
I1
sS'getaway'
p3012
I2
sS'supposed'
p3013
I1
sS'garland'
p3014
I1
sS'treated'
p3015
I1
sS'risky'
p3016
I1
sS'mickey'
p3017
I1
sS'charlotte'
p3018
I2
sS'shpe'
p3019
I1
sS'ages'
p3020
I1
sS'fireside'
p3021
I1
sS'juice'
p3022
I2
sS'alike'
p3023
I1
sS'cleaned'
p3024
I1
sS'horesback'
p3025
I1
sS'philly'
p3026
I2
sS'mountain'
p3027
I1
sS'nights'
p3028
I7
sS'built'
p3029
I1
sS'self'
p3030
I1
sS'commotion'
p3031
I1
sS'couch'
p3032
I3
sS'lit'
p3033
I1
sS'also'
p3034
I38
sS'historic'
p3035
I1
sS'breeze'
p3036
I3
sS'hanauma'
p3037
I1
sS'finding'
p3038
I1
sS'mose'
p3039
I1
sS'defintely'
p3040
I1
sS'play'
p3041
I6
sS'added'
p3042
I2
sS'components'
p3043
I1
sS'eggs'
p3044
I6
sS'macy'
p3045
I1
sS'experiences'
p3046
I2
sS'plan'
p3047
I4
sS'nothing'
p3048
I1
sS'extremely'
p3049
I9
sS'refrigerator'
p3050
I1
sS'reward'
p3051
I1
sS'windows'
p3052
I1
sS'performances'
p3053
I1
sS'clear'
p3054
I4
sS'huntley'
p3055
I2
sS'cramped'
p3056
I1
sS'clean'
p3057
I39
sS'coincided'
p3058
I2
sS'golf'
p3059
I1
sS'somewhat'
p3060
I1
sS'stunned'
p3061
I1
sS'accommodations'
p3062
I4
sS'fine'
p3063
I1
sS'find'
p3064
I6
sS'giant'
p3065
I2
sS'etsy'
p3066
I1
sS'justice'
p3067
I1
sS'stairs'
p3068
I1
sS'pretty'
p3069
I3
sS'knowledgeable'
p3070
I2
sS'columns'
p3071
I1
sS'therefore'
p3072
I1
sS'famous'
p3073
I4
sS'preparing'
p3074
I1
sS'basement'
p3075
I1
sS'common'
p3076
I1
sS'recommendations'
p3077
I1
sS'river'
p3078
I2
sS'courteous'
p3079
I3
sS'restaurants'
p3080
I12
sS'bars'
p3081
I1
sS'set'
p3082
I1
sS'art'
p3083
I3
sS'culture'
p3084
I1
sS'see'
p3085
I4
sS'close'
p3086
I7
sS'wyndham'
p3087
I2
sS'freindly'
p3088
I1
sS'visiting'
p3089
I12
sS'pictures'
p3090
I1
sS'various'
p3091
I4
sS'probably'
p3092
I1
sS'champagne'
p3093
I3
sS'available'
p3094
I8
sS'recently'
p3095
I8
sS'creating'
p3096
I1
sS'attention'
p3097
I1
sS'premise'
p3098
I1
sS'last'
p3099
I5
sS'attleboro'
p3100
I1
sS'restaurant'
p3101
I15
sS'luxorious'
p3102
I1
sS'barely'
p3103
I2
sS'connection'
p3104
I1
sS'became'
p3105
I1
sS'whole'
p3106
I1
sS'baltimore'
p3107
I1
sS'upgraded'
p3108
I3
sS'liked'
p3109
I5
sS'point'
p3110
I3
sS'simple'
p3111
I3
sS'dinning'
p3112
I1
sS'storybook'
p3113
I1
sS'simply'
p3114
I7
sS'frosty'
p3115
I1
sS'throughout'
p3116
I3
sS'due'
p3117
I1
sS'hitting'
p3118
I1
sS'secret'
p3119
I1
sS'firm'
p3120
I2
sS'lived'
p3121
I1
sS'packs'
p3122
I1
sS'fire'
p3123
I1
sS'sfmoma'
p3124
I1
sS'gas'
p3125
I1
sS'else'
p3126
I2
sS'pricey'
p3127
I1
sS'prices'
p3128
I2
sS'plants'
p3129
I3
sS'georgia'
p3130
I3
sS'look'
p3131
I5
sS'bill'
p3132
I1
sS'budget'
p3133
I3
sS'fun'
p3134
I5
sS'atlanta'
p3135
I2
sS'guide'
p3136
I1
sS'melia'
p3137
I1
sS'casino'
p3138
I8
sS'overlooked'
p3139
I1
sS'everywhere'
p3140
I2
sS'rio'
p3141
I2
sS'shimbashi'
p3142
I2
sS'triple'
p3143
I1
sS'beautifully'
p3144
I2
sS'ready'
p3145
I4
sS'cuisine'
p3146
I1
sS'lengthy'
p3147
I1
sS'anymore'
p3148
I1
sS'virtually'
p3149
I1
sS'daughters'
p3150
I1
sS'bonus'
p3151
I3
sS'holidays'
p3152
I2
sS'moment'
p3153
I3
sS'arrived'
p3154
I3
sS'staycation'
p3155
I1
sS'sandals'
p3156
I1
sS'recent'
p3157
I2
sS'early'
p3158
I1
sS'picky'
p3159
I1
sS'docked'
p3160
I1
sS'spent'
p3161
I5
sS'snobby'
p3162
I1
sS'royalty'
p3163
I1
sS'auditor'
p3164
I1
sS'thoroughly'
p3165
I1
sS'spend'
p3166
I5
sS'listening'
p3167
I1
sS'questions'
p3168
I2
sS'using'
p3169
I1
sS'letting'
p3170
I1
sS'tables'
p3171
I1
sS'cut'
p3172
I1
sS'disappointed'
p3173
I1
sS'fitting'
p3174
I1
sS'location'
p3175
I27
sS'excited'
p3176
I1
sS'surprised'
p3177
I1
sS'customers'
p3178
I1
sS'lacking'
p3179
I1
sS'big'
p3180
I8
sS'couple'
p3181
I4
sS'emanating'
p3182
I1
sS'game'
p3183
I2
sS'quest'
p3184
I1
sS'bit'
p3185
I3
sS'like'
p3186
I23
sS'knock'
p3187
I1
sS'seperate'
p3188
I1
sS'inviting'
p3189
I1
sS'shaped'
p3190
I1
sS'popular'
p3191
I3
sS'stylish'
p3192
I2
sS'partying'
p3193
I1
sS'often'
p3194
I3
sS'sheraton'
p3195
I1
sS'spring'
p3196
I2
sS'back'
p3197
I18
sS'towards'
p3198
I1
sS'sight'
p3199
I2
sS'mirror'
p3200
I2
sS'trendy'
p3201
I2
sS'delivered'
p3202
I1
sS'jewelry'
p3203
I1
sS'pet'
p3204
I1
sS'absolutely'
p3205
I14
sS'per'
p3206
I4
sS'bellagio'
p3207
I1
sS'eating'
p3208
I2
sS'odor'
p3209
I2
sS'santa'
p3210
I1
sS'cannons'
p3211
I1
sS'housekeeping'
p3212
I1
sS'piles'
p3213
I1
sS'kitchenette'
p3214
I2
sS'plaza'
p3215
I1
sS'range'
p3216
I1
sS'greets'
p3217
I1
sS'charm'
p3218
I1
sS'complimentary'
p3219
I5
sS'shiny'
p3220
I1
sS'block'
p3221
I1
sS'seeing'
p3222
I1
sS'jimmy'
p3223
I1
sS'within'
p3224
I12
sS'services'
p3225
I1
sS'primarily'
p3226
I1
sS'sports'
p3227
I1
sS'sightseeing'
p3228
I1
sS'impressed'
p3229
I3
sS'arcade'
p3230
I2
sS'fast'
p3231
I1
sS'tsukiji'
p3232
I1
sS'housekeepers'
p3233
I1
sS'homemade'
p3234
I1
sS'forward'
p3235
I1
sS'mountains'
p3236
I1
sS'hawaiian'
p3237
I1
sS'relaxed'
p3238
I2
sS'boys'
p3239
I2
sS'properly'
p3240
I1
sS'line'
p3241
I3
sS'directed'
p3242
I2
sS'us'
p3243
I22
sS'exploration'
p3244
I1
sS'faded'
p3245
I1
sS'highlight'
p3246
I1
sS'called'
p3247
I1
sS'ordered'
p3248
I5
sS'adults'
p3249
I4
sS'likewise'
p3250
I1
sS'chat'
p3251
I1
sS'nice'
p3252
I32
sS'smiles'
p3253
I1
sS'visits'
p3254
I1
sS'luxurious'
p3255
I4
sS'helping'
p3256
I1
sS'reservation'
p3257
I2
sS'meals'
p3258
I1
sS'freeways'
p3259
I1
sS'ago'
p3260
I2
sS'notch'
p3261
I1
sS'overlooking'
p3262
I3
sS'practically'
p3263
I2
sS'age'
p3264
I1
sS'walked'
p3265
I4
sS'cooked'
p3266
I1
sS'dot'
p3267
I1
sS'fresh'
p3268
I11
sS'avoid'
p3269
I1
sS'hampton'
p3270
I1
sS'enjoyable'
p3271
I3
sS'windy'
p3272
I1
sS'ga'
p3273
I1
sS'go'
p3274
I13
sS'issues'
p3275
I1
sS'peanut'
p3276
I1
sS'wizard'
p3277
I1
sS'young'
p3278
I3
sS'suits'
p3279
I2
sS'ambience'
p3280
I2
sS'suite'
p3281
I5
sS'include'
p3282
I1
sS'friendly'
p3283
I25
sS'starbursts'
p3284
I1
sS'stocked'
p3285
I2
sS'dessert'
p3286
I3
sS'bedrooms'
p3287
I1
sS'pleasent'
p3288
I1
sS'putting'
p3289
I1
sS'drinking'
p3290
I1
sS'entire'
p3291
I3
sS'respectful'
p3292
I2
sS'harbor'
p3293
I2
sS'race'
p3294
I1
sS'alltime'
p3295
I1
sS'friendliness'
p3296
I1
sS'smaller'
p3297
I1
sS'traveling'
p3298
I3
sS'picked'
p3299
I3
sS'nephew'
p3300
I1
sS'folk'
p3301
I1
sS'graduating'
p3302
I1
sS'sausage'
p3303
I1
sS'poke'
p3304
I1
sS'paintings'
p3305
I2
sS'giving'
p3306
I1
sS'paddle'
p3307
I1
sS'valet'
p3308
I2
sS'access'
p3309
I4
sS'paying'
p3310
I1
sS'waiting'
p3311
I2
sS'indian'
p3312
I2
sS'flowing'
p3313
I1
sS'pristine'
p3314
I1
sS'refilled'
p3315
I1
sS'leg'
p3316
I1
sS'apologetic'
p3317
I1
sS'delivering'
p3318
I2
sS'objects'
p3319
I1
sS'let'
p3320
I3
sS'consideration'
p3321
I1
sS'great'
p3322
I66
sS'metro'
p3323
I1
sS'receive'
p3324
I3
sS'overseen'
p3325
I1
sS'leaving'
p3326
I1
sS'whisking'
p3327
I1
sS'products'
p3328
I1
sS'opinion'
p3329
I1
sS'makes'
p3330
I4
sS'maker'
p3331
I1
sS'private'
p3332
I2
sS'duck'
p3333
I1
sS'boasts'
p3334
I2
sS'gateway'
p3335
I1
sS'standing'
p3336
I1
sS'fee'
p3337
I1
sS'next'
p3338
I11
sS'vehicle'
p3339
I1
sS'grandest'
p3340
I1
sS'started'
p3341
I2
sS'carvings'
p3342
I1
sS'astoria'
p3343
I1
sS'charming'
p3344
I1
sS'train'
p3345
I1
sS'beachcomber'
p3346
I2
sS'gladly'
p3347
I1
sS'appointed'
p3348
I4
sS'customer'
p3349
I5
sS'aulani'
p3350
I1
sS'ride'
p3351
I1
sS'oh'
p3352
I1
sS'anywhere'
p3353
I2
sS'drops'
p3354
I1
sS'blaine'
p3355
I1
sS'reserved'
p3356
I1
sS'snacks'
p3357
I2
sS'dripping'
p3358
I1
sS'high'
p3359
I5
sS'hilton'
p3360
I1
sS'something'
p3361
I3
sS'tab'
p3362
I1
sS'chic'
p3363
I1
sS'shrimp'
p3364
I1
sS'hesitate'
p3365
I2
sS'sit'
p3366
I3
sS'vibe'
p3367
I1
sS'fortunate'
p3368
I1
sS'located'
p3369
I17
sS'brownstone'
p3370
I1
sS'establishment'
p3371
I2
sS'blocks'
p3372
I6
sS'luxuriously'
p3373
I1
sS'stop'
p3374
I3
sS'belongings'
p3375
I1
sS'counter'
p3376
I1
sS'lines'
p3377
I2
sS'honestly'
p3378
I1
sS'villas'
p3379
I1
sS'allow'
p3380
I1
sS'swimming'
p3381
I2
sS'galveston'
p3382
I3
sS'houston'
p3383
I2
sS'despite'
p3384
I1
sS'harajuku'
p3385
I1
sS'including'
p3386
I5
sS'perfect'
p3387
I9
sS'write'
p3388
I1
sS'la'
p3389
I3
sS'acres'
p3390
I1
sS'choose'
p3391
I2
sS'puerto'
p3392
I1
sS'holiday'
p3393
I3
sS'dam'
p3394
I1
sS'sweets'
p3395
I1
sS'instead'
p3396
I1
sS'front'
p3397
I10
sS'day'
p3398
I8
sS'scenic'
p3399
I1
sS'university'
p3400
I1
sS'delightful'
p3401
I1
sS'pools'
p3402
I6
sS'bills'
p3403
I3
sS'tray'
p3404
I2
sS'glasses'
p3405
I1
sS'unwind'
p3406
I5
sS'showering'
p3407
I1
sS'strip'
p3408
I9
sS'ambiance'
p3409
I2
sS'books'
p3410
I1
sS'exceeded'
p3411
I2
sS'special'
p3412
I1
sS'entertainment'
p3413
I2
sS'desert'
p3414
I1
sS'keepsake'
p3415
I1
sS'superbly'
p3416
I1
sS'electronics'
p3417
I1
sS'red'
p3418
I2
sS'promptly'
p3419
I2
sS'attending'
p3420
I1
sS'york'
p3421
I1
sS'moody'
p3422
I1
sS'scary'
p3423
I1
sS'steak'
p3424
I1
sS'could'
p3425
I20
sS'florida'
p3426
I5
sS'keep'
p3427
I4
sS'manicured'
p3428
I1
sS'south'
p3429
I2
sS'date'
p3430
I1
sS'quality'
p3431
I4
sS'destinations'
p3432
I1
sS'management'
p3433
I1
sS'fair'
p3434
I1
sS'privacy'
p3435
I1
sS'festival'
p3436
I3
sS'establishments'
p3437
I1
sS'perfectly'
p3438
I2
sS'lot'
p3439
I7
sS'dreary'
p3440
I1
sS'slides'
p3441
I4
sS'neck'
p3442
I1
sS'twon'
p3443
I1
sS'loved'
p3444
I13
sS'confortable'
p3445
I1
sS'furnishings'
p3446
I1
sS'lion'
p3447
I1
sS'bed'
p3448
I20
sS'appealing'
p3449
I1
sS'visited'
p3450
I1
sS'comfortable'
p3451
I31
sS'comfortably'
p3452
I1
sS'receptionist'
p3453
I1
sS'need'
p3454
I7
sS'dishes'
p3455
I2
sS'dallas'
p3456
I1
sS'able'
p3457
I8
sS'mid'
p3458
I1
sS'parks'
p3459
I3
sS'waffles'
p3460
I3
sS'soap'
p3461
I1
sS'snacking'
p3462
I1
sS'manoa'
p3463
I1
sS'class'
p3464
I2
sS'request'
p3465
I4
sS'looked'
p3466
I3
sS'scrambled'
p3467
I1
sS'fact'
p3468
I6
sS'atmosphere'
p3469
I8
sS'selection'
p3470
I1
sS'indoor'
p3471
I6
sS'anyway'
p3472
I1
sS'bring'
p3473
I2
sS'bikes'
p3474
I1
sS'bedroom'
p3475
I1
sS'fear'
p3476
I1
sS'pleased'
p3477
I1
sS'decade'
p3478
I1
sS'staff'
p3479
I53
sS'riding'
p3480
I2
sS'local'
p3481
I1
sS'photographs'
p3482
I1
sS'exceptional'
p3483
I2
sS'beat'
p3484
I3
sS'unbeatable'
p3485
I1
sS'overall'
p3486
I10
sS'bear'
p3487
I2
sS'sipping'
p3488
I1
sS'ones'
p3489
I1
sS'bead'
p3490
I1
sS'spur'
p3491
I1
sS'areas'
p3492
I3
sS'fridge'
p3493
I5
sS'view'
p3494
I14
sS'national'
p3495
I1
sS'bellhop'
p3496
I1
sS'enhanced'
p3497
I1
sS'interview'
p3498
I1
sS'closet'
p3499
I1
sS'superb'
p3500
I1
sS'state'
p3501
I1
sS'closed'
p3502
I1
sS'rendition'
p3503
I1
sS'courtyard'
p3504
I1
sS'key'
p3505
I6
sS'tantrum'
p3506
I1
sS'figured'
p3507
I2
sS'instant'
p3508
I1
sS'doubletree'
p3509
I2
sS'taking'
p3510
I4
sS'etc'
p3511
I2
sS'swim'
p3512
I1
sS'grounds'
p3513
I2
sS'ca'
p3514
I2
sS'paranormal'
p3515
I1
sS'walk'
p3516
I9
sS'table'
p3517
I3
sS'addition'
p3518
I4
sS'decent'
p3519
I3
sS'rennaissance'
p3520
I3
sS'feather'
p3521
I1
sS'naples'
p3522
I3
sS'controlled'
p3523
I1
sS'stationed'
p3524
I1
sS'finished'
p3525
I1
sS'covered'
p3526
I1
sS'smoking'
p3527
I1
sS'brunch'
p3528
I1
sS'unlike'
p3529
I1
sS'bedspreads'
p3530
I1
sS'homey'
p3531
I1
sS'value'
p3532
I4
sS'choices'
p3533
I1
sS'stunning'
p3534
I2
sS'wild'
p3535
I1
sS'cereals'
p3536
I1
sS'almost'
p3537
I7
sS'lush'
p3538
I1
sS'site'
p3539
I1
sS'helped'
p3540
I1
sS'gothic'
p3541
I1
sS'cross'
p3542
I1
sS'parts'
p3543
I2
sS'fido'
p3544
I1
sS'dickens'
p3545
I1
sS'shuttle'
p3546
I3
sS'party'
p3547
I3
sS'gets'
p3548
I2
sS'columbia'
p3549
I1
sS'definately'
p3550
I1
sS'upon'
p3551
I7
sS'nightly'
p3552
I1
sS'impeccable'
p3553
I3
sS'lobby'
p3554
I18
sS'pleasantly'
p3555
I1
sS'center'
p3556
I7
sS'mention'
p3557
I1
sS'nonetheless'
p3558
I1
sS'well'
p3559
I14
sS'thought'
p3560
I1
sS'english'
p3561
I1
sS'breaker'
p3562
I1
sS'usual'
p3563
I1
sS'botique'
p3564
I1
sS'barking'
p3565
I1
sS'less'
p3566
I1
sS'proximity'
p3567
I1
sS'rooms'
p3568
I42
sS'roomy'
p3569
I2
sS'generous'
p3570
I1
sS'headed'
p3571
I2
sS'sky'
p3572
I1
sS'lake'
p3573
I4
sS'fled'
p3574
I1
sS'add'
p3575
I1
sS'attractive'
p3576
I1
sS'embossed'
p3577
I1
sS'kick'
p3578
I1
sS'resolved'
p3579
I1
sS'ample'
p3580
I4
sS'dryer'
p3581
I1
sS'five'
p3582
I1
sS'know'
p3583
I5
sS'desk'
p3584
I9
sS'immediately'
p3585
I2
sS'pier'
p3586
I1
sS'audibly'
p3587
I1
sS'flamingo'
p3588
I3
sS'crisp'
p3589
I1
sS'helpful'
p3590
I13
sS'lost'
p3591
I1
sS'chairs'
p3592
I2
sS'candy'
p3593
I1
sS'sized'
p3594
I6
sS'soft'
p3595
I5
sS'accessible'
p3596
I2
sS'suites'
p3597
I6
sS'mattresses'
p3598
I1
sS'hair'
p3599
I1
sS'home'
p3600
I4
sS'empire'
p3601
I1
sS'stuffy'
p3602
I1
sS'pillows'
p3603
I5
sS'gables'
p3604
I1
sS'leaf'
p3605
I1
sS'lead'
p3606
I1
sS'bedding'
p3607
I2
sS'slide'
p3608
I1
sS'bustling'
p3609
I1
sS'locate'
p3610
I1
sS'reaching'
p3611
I1
sS'although'
p3612
I2
sS'hospitable'
p3613
I1
sS'panel'
p3614
I1
sS'carried'
p3615
I1
sS'getting'
p3616
I2
sS'freedom'
p3617
I1
sS'louisville'
p3618
I1
sS'pastries'
p3619
I2
sS'equally'
p3620
I1
sS'travelers'
p3621
I1
sS'washington'
p3622
I2
sS'cocoa'
p3623
I1
sS'playoff'
p3624
I1
sS'weather'
p3625
I2
sS'waikiki'
p3626
I2
sS'museum'
p3627
I2
sS'spots'
p3628
I3
sS'noticed'
p3629
I2
sS'continental'
p3630
I7
sS'inner'
p3631
I1
sS'buy'
p3632
I3
sS'north'
p3633
I3
sS'bus'
p3634
I4
sS'coke'
p3635
I1
sS'kalahari'
p3636
I3
sS'fountains'
p3637
I1
sS'landscaping'
p3638
I1
sS'strawberries'
p3639
I2
sS'highest'
p3640
I1
sS'eat'
p3641
I4
sS'hd'
p3642
I2
sS'made'
p3643
I11
sS'places'
p3644
I4
sS'whether'
p3645
I2
sS'wish'
p3646
I2
sS'hassel'
p3647
I1
sS'cake'
p3648
I1
sS'problem'
p3649
I2
sS'piece'
p3650
I2
sS'minutes'
p3651
I5
sS'reservations'
p3652
I1
sS'utensils'
p3653
I1
sS'inn'
p3654
I16
sS'campus'
p3655
I1
sS'balcony'
p3656
I1
sS'compared'
p3657
I1
sS'variety'
p3658
I3
sS'dressed'
p3659
I1
sS'assorted'
p3660
I1
sS'detail'
p3661
I1
sS'book'
p3662
I5
sS'details'
p3663
I2
sS'granite'
p3664
I1
sS'incredibly'
p3665
I2
sS'conclusion'
p3666
I1
sS'francisco'
p3667
I6
sS'star'
p3668
I3
sS'expereince'
p3669
I1
sS'stay'
p3670
I62
sS'additionally'
p3671
I1
sS'friends'
p3672
I7
sS'ghost'
p3673
I1
sS'hardboiled'
p3674
I1
sS'lakeland'
p3675
I1
sS'lasted'
p3676
I1
sS'baked'
p3677
I1
sS'gardens'
p3678
I1
ss.