(dp0
S'neg'
p1
ccollections
defaultdict
p2
(c__builtin__
int
p3
tp4
Rp5
S'augustine'
p6
I1
sS'desirable'
p7
I1
sS'yellow'
p8
I1
sS'sleep'
p9
I6
sS'railing'
p10
I1
sS'poorly'
p11
I2
sS'patches'
p12
I1
sS'bike'
p13
I1
sS'sorry'
p14
I1
sS'restock'
p15
I1
sS'worth'
p16
I4
sS'fireplaces'
p17
I1
sS'misunderstanding'
p18
I1
sS'every'
p19
I5
sS'updates'
p20
I2
sS'ala'
p21
I1
sS'disturb'
p22
I1
sS'basics'
p23
I1
sS'skills'
p24
I1
sS'clientele'
p25
I1
sS'clothes'
p26
I2
sS'enjoy'
p27
I2
sS'tired'
p28
I2
sS'phones'
p29
I1
sS'hanging'
p30
I1
sS'bacon'
p31
I1
sS'direct'
p32
I1
sS'horn'
p33
I1
sS'surrounding'
p34
I1
sS'second'
p35
I3
sS'street'
p36
I6
sS'even'
p37
I29
sS'wreck'
p38
I1
sS'beaten'
p39
I1
sS'lights'
p40
I4
sS'haze'
p41
I1
sS'supplies'
p42
I1
sS'ever'
p43
I9
sS'told'
p44
I8
sS'interstate'
p45
I2
sS'never'
p46
I19
sS'hundreds'
p47
I1
sS'reported'
p48
I1
sS'path'
p49
I2
sS'promptly'
p50
I1
sS'kids'
p51
I3
sS'daughter'
p52
I1
sS'luggage'
p53
I2
sS'items'
p54
I1
sS'credit'
p55
I2
sS'smoke'
p56
I6
sS'changes'
p57
I2
sS'swearing'
p58
I1
sS'secure'
p59
I1
sS'spooky'
p60
I1
sS'highly'
p61
I2
sS'brought'
p62
I2
sS'guests'
p63
I1
sS'total'
p64
I1
sS'unit'
p65
I1
sS'spoke'
p66
I2
sS'would'
p67
I43
sS'arms'
p68
I1
sS'leaks'
p69
I1
sS'call'
p70
I6
sS'calm'
p71
I1
sS'passport'
p72
I1
sS'recommend'
p73
I10
sS'leaky'
p74
I1
sS'beddings'
p75
I1
sS'tell'
p76
I5
sS'separated'
p77
I1
sS'warp'
p78
I1
sS'phone'
p79
I6
sS'excellent'
p80
I1
sS'hold'
p81
I1
sS'outdated'
p82
I2
sS'blocking'
p83
I1
sS'must'
p84
I7
sS'word'
p85
I2
sS'room'
p86
I144
sS'cheapest'
p87
I1
sS'work'
p88
I11
sS'worn'
p89
I1
sS'example'
p90
I1
sS'indicated'
p91
I1
sS'give'
p92
I1
sS'overheard'
p93
I1
sS'want'
p94
I1
sS'worse'
p95
I4
sS'doorman'
p96
I1
sS'end'
p97
I1
sS'scolding'
p98
I1
sS'complaining'
p99
I1
sS'travel'
p100
I2
sS'sitting'
p101
I1
sS'feature'
p102
I1
sS'hot'
p103
I6
sS'gate'
p104
I1
sS'beach'
p105
I8
sS'charging'
p106
I1
sS'pizza'
p107
I1
sS'badly'
p108
I1
sS'beauty'
p109
I1
sS'mess'
p110
I1
sS'earlier'
p111
I1
sS'wrong'
p112
I7
sS'lay'
p113
I2
sS'las'
p114
I2
sS'purchase'
p115
I1
sS'third'
p116
I4
sS'appreciate'
p117
I3
sS'cigarettes'
p118
I2
sS'frequent'
p119
I1
sS'enter'
p120
I1
sS'fan'
p121
I3
sS'order'
p122
I1
sS'office'
p123
I5
sS'ramadas'
p124
I1
sS'jacuzzi'
p125
I1
sS'crumbs'
p126
I1
sS'fit'
p127
I1
sS'somewhere'
p128
I3
sS'fix'
p129
I3
sS'better'
p130
I7
sS'weeks'
p131
I1
sS'eventually'
p132
I1
sS'coffee'
p133
I5
sS'safe'
p134
I3
sS'school'
p135
I2
sS'awfully'
p136
I1
sS'astor'
p137
I2
sS'meat'
p138
I1
sS'notified'
p139
I1
sS'reasonably'
p140
I1
sS'ventilation'
p141
I2
sS'reasonable'
p142
I1
sS'went'
p143
I17
sS'meal'
p144
I1
sS'mean'
p145
I2
sS'whim'
p146
I1
sS'strips'
p147
I1
sS'lamanche'
p148
I1
sS'driving'
p149
I1
sS'motel'
p150
I15
sS're'
p151
I1
sS'nite'
p152
I1
sS'got'
p153
I29
sS'turning'
p154
I1
sS'assured'
p155
I1
sS'little'
p156
I8
sS'free'
p157
I4
sS'standard'
p158
I1
sS'checked'
p159
I9
sS'wanted'
p160
I8
sS'ate'
p161
I1
sS'created'
p162
I1
sS'inexpensive'
p163
I1
sS'days'
p164
I13
sS'disrespected'
p165
I1
sS'levels'
p166
I1
sS'soda'
p167
I1
sS'moving'
p168
I1
sS'loud'
p169
I5
sS'purpose'
p170
I1
sS'rang'
p171
I1
sS'already'
p172
I3
sS'floors'
p173
I2
sS'another'
p174
I8
sS'service'
p175
I17
sS'hilton'
p176
I5
sS'elevator'
p177
I4
sS'needed'
p178
I6
sS'legs'
p179
I1
sS'dogs'
p180
I4
sS'curtains'
p181
I1
sS'ceiling'
p182
I3
sS'paltry'
p183
I1
sS'leaking'
p184
I1
sS'took'
p185
I13
sS'rejected'
p186
I1
sS'western'
p187
I1
sS'somewhat'
p188
I6
sS'brushed'
p189
I2
sS'distance'
p190
I1
sS'showed'
p191
I1
sS'tree'
p192
I1
sS'spending'
p193
I1
sS'shower'
p194
I7
sS'matter'
p195
I2
sS'friend'
p196
I1
sS'historical'
p197
I1
sS'spoiled'
p198
I2
sS'shampoos'
p199
I1
sS'mini'
p200
I1
sS'palace'
p201
I1
sS'ran'
p202
I2
sS'modern'
p203
I1
sS'mind'
p204
I2
sS'upset'
p205
I1
sS'talking'
p206
I3
sS'seen'
p207
I2
sS'seem'
p208
I2
sS'urinate'
p209
I1
sS'seminar'
p210
I2
sS'convenient'
p211
I1
sS'oriented'
p212
I1
sS'recommended'
p213
I1
sS'luxury'
p214
I2
sS'doors'
p215
I1
sS'though'
p216
I3
sS'thrilled'
p217
I1
sS'regular'
p218
I1
sS'inconsistency'
p219
I1
sS'darkness'
p220
I1
sS'grove'
p221
I1
sS'freeway'
p222
I1
sS'reputation'
p223
I1
sS'mailing'
p224
I1
sS'annoyed'
p225
I2
sS'came'
p226
I12
sS'reserve'
p227
I1
sS'contacted'
p228
I1
sS'insects'
p229
I3
sS'queen'
p230
I1
sS'earth'
p231
I1
sS'nevada'
p232
I2
sS'orleans'
p233
I3
sS'busy'
p234
I6
sS'menu'
p235
I2
sS'touched'
p236
I1
sS'disgust'
p237
I1
sS'lodge'
p238
I2
sS'constant'
p239
I1
sS'plate'
p240
I1
sS'watch'
p241
I2
sS'coast'
p242
I1
sS'new'
p243
I7
sS'happiest'
p244
I1
sS'runs'
p245
I3
sS'bar'
p246
I1
sS'covering'
p247
I1
sS'bad'
p248
I3
sS'steak'
p249
I2
sS'laquinta'
p250
I1
sS'inns'
p251
I1
sS'fair'
p252
I2
sS'decided'
p253
I3
sS'horrendous'
p254
I1
sS'best'
p255
I4
sS'said'
p256
I6
sS'away'
p257
I6
sS'continually'
p258
I1
sS'unable'
p259
I2
sS'finger'
p260
I1
sS'drawn'
p261
I1
sS'approach'
p262
I1
sS'smelled'
p263
I12
sS'handful'
p264
I1
sS'weak'
p265
I1
sS'however'
p266
I13
sS'wi'
p267
I1
sS'lotion'
p268
I1
sS'upfront'
p269
I1
sS'received'
p270
I4
sS'keycard'
p271
I1
sS'veer'
p272
I1
sS'country'
p273
I2
sS'demanded'
p274
I1
sS'mildly'
p275
I1
sS'dents'
p276
I1
sS'asked'
p277
I2
sS'appeared'
p278
I1
sS'towels'
p279
I3
sS'speak'
p280
I3
sS'bathroom'
p281
I10
sS'three'
p282
I4
sS'tiny'
p283
I3
sS'quickly'
p284
I3
sS'confident'
p285
I1
sS'much'
p286
I10
sS'basic'
p287
I2
sS'expected'
p288
I8
sS'entered'
p289
I2
sS'incompetent'
p290
I1
sS'threw'
p291
I3
sS'website'
p292
I3
sS'life'
p293
I2
sS'relaxing'
p294
I1
sS'search'
p295
I1
sS'strewn'
p296
I1
sS'reno'
p297
I2
sS'child'
p298
I1
sS'worked'
p299
I1
sS'save'
p300
I1
sS'pungent'
p301
I1
sS'air'
p302
I7
sS'ugly'
p303
I1
sS'near'
p304
I10
sS'suppose'
p305
I1
sS'stopping'
p306
I1
sS'property'
p307
I3
sS'mistake'
p308
I1
sS'pyramid'
p309
I1
sS'upscale'
p310
I1
sS'cans'
p311
I1
sS'conditioner'
p312
I4
sS'seattle'
p313
I1
sS'damaged'
p314
I1
sS'bottles'
p315
I2
sS'things'
p316
I4
sS'make'
p317
I12
sS'airport'
p318
I3
sS'jaccuzi'
p319
I1
sS'beside'
p320
I2
sS'visitations'
p321
I1
sS'several'
p322
I6
sS'hand'
p323
I3
sS'ocean'
p324
I2
sS'bedspread'
p325
I1
sS'qualities'
p326
I1
sS'claims'
p327
I1
sS'corporate'
p328
I2
sS'left'
p329
I11
sS'sleepy'
p330
I1
sS'yes'
p331
I2
sS'yet'
p332
I3
sS'previous'
p333
I1
sS'shoud'
p334
I1
sS'ease'
p335
I1
sS'character'
p336
I1
sS'board'
p337
I1
sS'east'
p338
I1
sS'gave'
p339
I8
sS'sanitary'
p340
I1
sS'roach'
p341
I1
sS'burnt'
p342
I1
sS'county'
p343
I1
sS'orlando'
p344
I1
sS'sparse'
p345
I2
sS'night'
p346
I23
sS'security'
p347
I1
sS'right'
p348
I11
sS'old'
p349
I11
sS'deal'
p350
I3
sS'people'
p351
I15
sS'crown'
p352
I1
sS'dead'
p353
I2
sS'pain'
p354
I1
sS'inhuman'
p355
I1
sS'comments'
p356
I1
sS'everything'
p357
I6
sS'renovations'
p358
I3
sS'asking'
p359
I1
sS'mishawaka'
p360
I1
sS'discount'
p361
I2
sS'buffet'
p362
I2
sS'super'
p363
I8
sS'properties'
p364
I2
sS'diner'
p365
I2
sS'dollars'
p366
I1
sS'months'
p367
I1
sS'dinner'
p368
I1
sS'shopkeepers'
p369
I1
sS'pays'
p370
I1
sS'negative'
p371
I1
sS'stop'
p372
I1
sS'renovating'
p373
I1
sS'creamers'
p374
I1
sS'constantly'
p375
I1
sS'stuck'
p376
I3
sS'way'
p377
I13
sS'music'
p378
I1
sS'happy'
p379
I1
sS'questionable'
p380
I1
sS'head'
p381
I3
sS'offering'
p382
I2
sS'offer'
p383
I1
sS'fireworks'
p384
I1
sS'landing'
p385
I2
sS'heat'
p386
I1
sS'hear'
p387
I6
sS'removed'
p388
I1
sS'true'
p389
I1
sS'inside'
p390
I2
sS'attached'
p391
I2
sS'ruined'
p392
I2
sS'hotter'
p393
I1
sS'minibar'
p394
I1
sS'stronger'
p395
I1
sS'mediocre'
p396
I3
sS'mold'
p397
I2
sS'trip'
p398
I4
sS'floor'
p399
I13
sS'tip'
p400
I2
sS'handed'
p401
I1
sS'reality'
p402
I1
sS'overnights'
p403
I1
sS'interested'
p404
I2
sS'carpeting'
p405
I2
sS'test'
p406
I2
sS'smell'
p407
I9
sS'company'
p408
I1
sS'handicap'
p409
I2
sS'felt'
p410
I8
sS'weekend'
p411
I4
sS'unlocking'
p412
I1
sS'apologizing'
p413
I1
sS'longer'
p414
I2
sS'glass'
p415
I1
sS'swarming'
p416
I1
sS'together'
p417
I2
sS'beds'
p418
I5
sS'teeth'
p419
I2
sS'serious'
p420
I1
sS'alternatives'
p421
I1
sS'switches'
p422
I1
sS'manager'
p423
I11
sS'mile'
p424
I1
sS'vacanies'
p425
I1
sS'disgusting'
p426
I1
sS'finally'
p427
I12
sS'choice'
p428
I1
sS'vegas'
p429
I3
sS'stays'
p430
I1
sS'trouble'
p431
I1
sS'blast'
p432
I1
sS'minute'
p433
I2
sS'cool'
p434
I2
sS'level'
p435
I3
sS'hawaii'
p436
I1
sS'travels'
p437
I1
sS'team'
p438
I1
sS'quick'
p439
I3
sS'dip'
p440
I1
sS'hotelier'
p441
I1
sS'sandcastle'
p442
I1
sS'sign'
p443
I1
sS'cost'
p444
I1
sS'roof'
p445
I2
sS'bake'
p446
I1
sS'drinks'
p447
I2
sS'cleanliness'
p448
I1
sS'switch'
p449
I1
sS'shared'
p450
I1
sS'filled'
p451
I1
sS'french'
p452
I3
sS'water'
p453
I18
sS'snack'
p454
I3
sS'address'
p455
I2
sS'along'
p456
I1
sS'change'
p457
I6
sS'wait'
p458
I4
sS'boy'
p459
I2
sS'dusty'
p460
I1
sS'saws'
p461
I1
sS'wherever'
p462
I1
sS'usually'
p463
I1
sS'weird'
p464
I1
sS'carpets'
p465
I4
sS'love'
p466
I2
sS'extra'
p467
I2
sS'prefer'
p468
I1
sS'hotels'
p469
I7
sS'working'
p470
I7
sS'positive'
p471
I2
sS'visit'
p472
I2
sS'live'
p473
I2
sS'going'
p474
I8
sS'roared'
p475
I1
sS'acceptable'
p476
I2
sS'futon'
p477
I1
sS'downtown'
p478
I8
sS'everywhere'
p479
I7
sS'effort'
p480
I2
sS'yelling'
p481
I1
sS'edible'
p482
I1
sS'car'
p483
I4
sS'reviews'
p484
I2
sS'wallet'
p485
I1
sS'cab'
p486
I1
sS'arrive'
p487
I2
sS'nearest'
p488
I2
sS'december'
p489
I1
sS'agent'
p490
I1
sS'heard'
p491
I4
sS'winter'
p492
I1
sS'magazine'
p493
I1
sS'write'
p494
I1
sS'fourth'
p495
I2
sS'absolute'
p496
I1
sS'pint'
p497
I1
sS'map'
p498
I1
sS'staying'
p499
I6
sS'laundry'
p500
I1
sS'staircase'
p501
I1
sS'may'
p502
I2
sS'overall'
p503
I6
sS'spot'
p504
I2
sS'disgusted'
p505
I1
sS'birthday'
p506
I2
sS'tipped'
p507
I1
sS'designed'
p508
I1
sS'filthy'
p509
I4
sS'shockingly'
p510
I1
sS'man'
p511
I1
sS'disheartening'
p512
I1
sS'natural'
p513
I2
sS'whenever'
p514
I1
sS'maybe'
p515
I2
sS'wheelchair'
p516
I1
sS'gap'
p517
I1
sS'jail'
p518
I1
sS'pulled'
p519
I2
sS'talk'
p520
I1
sS'refund'
p521
I5
sS'cute'
p522
I1
sS'mainly'
p523
I1
sS'years'
p524
I1
sS'decently'
p525
I1
sS'ended'
p526
I7
sS'cold'
p527
I1
sS'still'
p528
I9
sS'lied'
p529
I1
sS'torn'
p530
I1
sS'amazing'
p531
I1
sS'maid'
p532
I5
sS'window'
p533
I6
sS'policy'
p534
I4
sS'showered'
p535
I1
sS'main'
p536
I2
sS'texas'
p537
I1
sS'happened'
p538
I1
sS'non'
p539
I3
sS'views'
p540
I1
sS'conversations'
p541
I1
sS'underneath'
p542
I2
sS'lunch'
p543
I2
sS'drilling'
p544
I1
sS'half'
p545
I3
sS'arriving'
p546
I2
sS'bath'
p547
I1
sS'hall'
p548
I2
sS'name'
p549
I1
sS'corners'
p550
I2
sS'fisherman'
p551
I1
sS'rock'
p552
I1
sS'hinesville'
p553
I1
sS'quarter'
p554
I3
sS'el'
p555
I1
sS'eh'
p556
I1
sS'year'
p557
I3
sS'tried'
p558
I5
sS'shown'
p559
I1
sS'opened'
p560
I2
sS'space'
p561
I1
sS'looking'
p562
I6
sS'internet'
p563
I5
sS'shows'
p564
I2
sS'quite'
p565
I3
sS'unfriendly'
p566
I4
sS'vinyl'
p567
I1
sS'besides'
p568
I1
sS'ajar'
p569
I1
sS'obligation'
p570
I1
sS'remainder'
p571
I1
sS'card'
p572
I1
sS'care'
p573
I3
sS'advance'
p574
I1
sS'carnival'
p575
I1
sS'selections'
p576
I1
sS'programming'
p577
I1
sS'honest'
p578
I1
sS'thing'
p579
I6
sS'place'
p580
I12
sS'charleston'
p581
I2
sS'think'
p582
I4
sS'waited'
p583
I2
sS'first'
p584
I13
sS'flying'
p585
I1
sS'saving'
p586
I1
sS'spoken'
p587
I1
sS'one'
p588
I26
sS'long'
p589
I3
sS'impossible'
p590
I1
sS'sounds'
p591
I1
sS'drove'
p592
I2
sS'open'
p593
I2
sS'size'
p594
I2
sS'city'
p595
I3
sS'given'
p596
I2
sS'sheet'
p597
I1
sS'molded'
p598
I1
sS'district'
p599
I3
sS'caught'
p600
I1
sS'slept'
p601
I1
sS'anyone'
p602
I7
sS'convention'
p603
I2
sS'mermaid'
p604
I1
sS'pittsburgh'
p605
I1
sS'season'
p606
I2
sS'ridiculous'
p607
I1
sS'holder'
p608
I2
sS'television'
p609
I5
sS'unfortunately'
p610
I1
sS'begrudgingly'
p611
I1
sS'victorian'
p612
I2
sS'trekking'
p613
I1
sS'cards'
p614
I1
sS'buries'
p615
I1
sS'san'
p616
I3
sS'nicer'
p617
I1
sS'turned'
p618
I2
sS'locations'
p619
I3
sS'alley'
p620
I1
sS'sad'
p621
I1
sS'say'
p622
I2
sS'voiced'
p623
I1
sS'breakfast'
p624
I10
sS'saw'
p625
I5
sS'sat'
p626
I1
sS'lumpy'
p627
I1
sS'dining'
p628
I1
sS'jefferson'
p629
I3
sS'take'
p630
I4
sS'interior'
p631
I1
sS'wanting'
p632
I1
sS'surf'
p633
I1
sS'begin'
p634
I1
sS'sure'
p635
I2
sS'multiple'
p636
I3
sS'price'
p637
I8
sS'microwaves'
p638
I1
sS'paid'
p639
I7
sS'falls'
p640
I1
sS'coworker'
p641
I1
sS'sheets'
p642
I10
sS'complaints'
p643
I4
sS'america'
p644
I1
sS'beachfront'
p645
I2
sS'especially'
p646
I1
sS'surprising'
p647
I1
sS'average'
p648
I2
sS'later'
p649
I11
sS'drive'
p650
I5
sS'pores'
p651
I1
sS'typically'
p652
I1
sS'luxor'
p653
I1
sS'walking'
p654
I1
sS'show'
p655
I3
sS'cheap'
p656
I8
sS'spaces'
p657
I2
sS'corner'
p658
I2
sS'slow'
p659
I3
sS'stained'
p660
I2
sS'outside'
p661
I8
sS'lansing'
p662
I1
sS'wood'
p663
I2
sS'black'
p664
I1
sS'equipped'
p665
I1
sS'blinds'
p666
I1
sS'carolina'
p667
I1
sS'televisions'
p668
I1
sS'phuket'
p669
I1
sS'closed'
p670
I1
sS'get'
p671
I37
sS'balconies'
p672
I1
sS'cursing'
p673
I2
sS'nearly'
p674
I1
sS'clerks'
p675
I1
sS'stroll'
p676
I1
sS'morning'
p677
I5
sS'miles'
p678
I1
sS'husband'
p679
I7
sS'ignored'
p680
I2
sS'violated'
p681
I1
sS'parking'
p682
I6
sS'concern'
p683
I1
sS'ways'
p684
I1
sS'enough'
p685
I7
sS'moldy'
p686
I2
sS'reading'
p687
I1
sS'across'
p688
I1
sS'arrival'
p689
I1
sS'notice'
p690
I1
sS'jobs'
p691
I1
sS'august'
p692
I1
sS'moana'
p693
I1
sS'dome'
p694
I1
sS'tub'
p695
I4
sS'come'
p696
I6
sS'avoid'
p697
I1
sS'many'
p698
I9
sS'quiet'
p699
I4
sS'personal'
p700
I1
sS'dated'
p701
I8
sS'furnitures'
p702
I1
sS'nearby'
p703
I4
sS'duty'
p704
I1
sS'color'
p705
I1
sS'ants'
p706
I1
sS'maintained'
p707
I2
sS'discolored'
p708
I1
sS'informed'
p709
I5
sS'vacation'
p710
I3
sS'mark'
p711
I1
sS'peaceful'
p712
I1
sS'hardly'
p713
I2
sS'shopping'
p714
I1
sS'tasteless'
p715
I1
sS'offered'
p716
I1
sS'photos'
p717
I1
sS'spills'
p718
I1
sS'paying'
p719
I3
sS'handicapped'
p720
I1
sS'argonaut'
p721
I1
sS'situation'
p722
I1
sS'shops'
p723
I3
sS'penthouse'
p724
I1
sS'ive'
p725
I1
sS'aston'
p726
I1
sS'sleeping'
p727
I4
sS'middle'
p728
I5
sS'someone'
p729
I9
sS'baths'
p730
I1
sS'different'
p731
I7
sS'pay'
p732
I6
sS'reminded'
p733
I3
sS'check'
p734
I7
sS'disappointment'
p735
I1
sS'week'
p736
I3
sS'extended'
p737
I1
sS'running'
p738
I2
sS'fruit'
p739
I2
sS'two'
p740
I14
sS'climbing'
p741
I1
sS'italian'
p742
I1
sS'complained'
p743
I3
sS'theater'
p744
I1
sS'pennsylvania'
p745
I1
sS'without'
p746
I2
sS'bottle'
p747
I1
sS'trains'
p748
I1
sS'charged'
p749
I2
sS'lysol'
p750
I1
sS'summer'
p751
I3
sS'outdoor'
p752
I1
sS'money'
p753
I8
sS'neon'
p754
I1
sS'rest'
p755
I3
sS'speed'
p756
I1
sS'blow'
p757
I1
sS'deceiving'
p758
I1
sS'hint'
p759
I1
sS'thinking'
p760
I1
sS'seems'
p761
I1
sS'except'
p762
I1
sS'around'
p763
I5
sS'virginia'
p764
I2
sS'early'
p765
I2
sS'crowne'
p766
I1
sS'traffic'
p767
I2
sS'using'
p768
I3
sS'railroad'
p769
I1
sS'lady'
p770
I1
sS'rear'
p771
I1
sS'furniture'
p772
I1
sS'towel'
p773
I1
sS'stranger'
p774
I1
sS'oddly'
p775
I1
sS'either'
p776
I2
sS'occasions'
p777
I1
sS'served'
p778
I2
sS'substandard'
p779
I1
sS'attenitive'
p780
I1
sS'joking'
p781
I1
sS'redeeming'
p782
I1
sS'provided'
p783
I2
sS'noon'
p784
I1
sS'welcome'
p785
I1
sS'business'
p786
I3
sS'dissapointing'
p787
I1
sS'itching'
p788
I2
sS'nails'
p789
I1
sS'iconic'
p790
I2
sS'broken'
p791
I5
sS'accommodated'
p792
I1
sS'sixty'
p793
I1
sS'thailand'
p794
I1
sS'baffled'
p795
I1
sS'ok'
p796
I1
sS'side'
p797
I1
sS'airline'
p798
I2
sS'stank'
p799
I1
sS'road'
p800
I2
sS'burning'
p801
I1
sS'inclusion'
p802
I1
sS'accounts'
p803
I1
sS'apologize'
p804
I1
sS'operator'
p805
I1
sS'area'
p806
I16
sS'strip'
p807
I2
sS'start'
p808
I2
sS'low'
p809
I3
sS'lot'
p810
I5
sS'overpaid'
p811
I1
sS'mornings'
p812
I1
sS'complete'
p813
I2
sS'staircases'
p814
I1
sS'antiquated'
p815
I1
sS'mice'
p816
I1
sS'trying'
p817
I2
sS'downstairs'
p818
I2
sS'dirty'
p819
I19
sS'beliefs'
p820
I1
sS'rust'
p821
I1
sS'expect'
p822
I4
sS'strongly'
p823
I1
sS'gone'
p824
I1
sS'ac'
p825
I1
sS'toiler'
p826
I1
sS'exhausted'
p827
I1
sS'certain'
p828
I2
sS'forgot'
p829
I1
sS'moved'
p830
I2
sS'ao'
p831
I2
sS'salem'
p832
I1
sS'girlfriend'
p833
I1
sS'rubbed'
p834
I1
sS'drafty'
p835
I1
sS'gambling'
p836
I1
sS'trash'
p837
I3
sS'dismayed'
p838
I1
sS'poor'
p839
I3
sS'requested'
p840
I5
sS'pillows'
p841
I3
sS'congress'
p842
I1
sS'separate'
p843
I1
sS'refunded'
p844
I1
sS'time'
p845
I20
sS'important'
p846
I2
sS'included'
p847
I1
sS'decorated'
p848
I2
sS'pool'
p849
I7
sS'building'
p850
I4
sS'booked'
p851
I7
sS'remote'
p852
I1
sS'calls'
p853
I2
sS'wife'
p854
I2
sS'wifi'
p855
I2
sS'untidy'
p856
I1
sS'adam'
p857
I1
sS'deluxe'
p858
I1
sS'original'
p859
I1
sS'since'
p860
I3
sS'chinese'
p861
I1
sS'lack'
p862
I5
sS'dollar'
p863
I1
sS'month'
p864
I1
sS'debris'
p865
I1
sS'smoking'
p866
I5
sS'messy'
p867
I1
sS'fixtures'
p868
I1
sS'carpet'
p869
I8
sS'tv'
p870
I3
sS'good'
p871
I10
sS'health'
p872
I1
sS'activities'
p873
I1
sS'woman'
p874
I3
sS'returned'
p875
I4
sS'returning'
p876
I3
sS'far'
p877
I10
sS'worst'
p878
I17
sS'minded'
p879
I1
sS'awful'
p880
I3
sS'syracuse'
p881
I2
sS'cable'
p882
I1
sS'louis'
p883
I1
sS'laying'
p884
I1
sS'small'
p885
I11
sS'rats'
p886
I1
sS'ten'
p887
I1
sS'past'
p888
I2
sS'rate'
p889
I3
sS'design'
p890
I1
sS'situated'
p891
I1
sS'dial'
p892
I2
sS'abc'
p893
I1
sS'sub'
p894
I1
sS'musty'
p895
I2
sS'choson'
p896
I1
sS'plush'
p897
I1
sS'full'
p898
I5
sS'unprofessional'
p899
I1
sS'hours'
p900
I7
sS'tracks'
p901
I1
sS'operating'
p902
I1
sS'directions'
p903
I1
sS'personable'
p904
I1
sS'chipped'
p905
I1
sS'vegetarian'
p906
I1
sS'experience'
p907
I13
sS'amount'
p908
I2
sS'options'
p909
I2
sS'family'
p910
I9
sS'buses'
p911
I1
sS'suddenly'
p912
I1
sS'put'
p913
I5
sS'eye'
p914
I1
sS'occassion'
p915
I1
sS'faint'
p916
I1
sS'charge'
p917
I3
sS'amenities'
p918
I4
sS'taken'
p919
I2
sS'tacky'
p920
I2
sS'diamond'
p921
I1
sS'door'
p922
I11
sS'brisk'
p923
I1
sS'telephone'
p924
I1
sS'basically'
p925
I1
sS'particular'
p926
I2
sS'glad'
p927
I1
sS'town'
p928
I3
sS'keeping'
p929
I2
sS'hour'
p930
I6
sS'blah'
p931
I1
sS'gaucho'
p932
I1
sS'knocked'
p933
I2
sS'male'
p934
I1
sS'history'
p935
I1
sS'beautiful'
p936
I1
sS'atrocious'
p937
I2
sS'stated'
p938
I3
sS'niagara'
p939
I1
sS'purchased'
p940
I1
sS'huge'
p941
I2
sS'awkward'
p942
I1
sS'rather'
p943
I1
sS'comfort'
p944
I2
sS'stayed'
p945
I26
sS'maps'
p946
I1
sS'motels'
p947
I1
sS'intended'
p948
I1
sS'rude'
p949
I10
sS'par'
p950
I1
sS'plane'
p951
I1
sS'coming'
p952
I1
sS'fi'
p953
I1
sS'fl'
p954
I1
sS'crowded'
p955
I1
sS'toiletries'
p956
I1
sS'register'
p957
I1
sS'bugs'
p958
I6
sS'deafening'
p959
I1
sS'rentals'
p960
I1
sS'mexican'
p961
I1
sS'help'
p962
I4
sS'stains'
p963
I5
sS'advised'
p964
I1
sS'soon'
p965
I2
sS'held'
p966
I1
sS'paper'
p967
I8
sS'style'
p968
I1
sS'debilitated'
p969
I1
sS'caesars'
p970
I1
sS'actually'
p971
I3
sS'late'
p972
I5
sS'resort'
p973
I5
sS'travelling'
p974
I1
sS'might'
p975
I3
sS'evening'
p976
I2
sS'return'
p977
I2
sS'disrespectful'
p978
I1
sS'food'
p979
I11
sS'units'
p980
I1
sS'walls'
p981
I6
sS'grubby'
p982
I1
sS'starbucks'
p983
I1
sS'foot'
p984
I2
sS'complain'
p985
I1
sS'bigger'
p986
I1
sS'desperately'
p987
I1
sS'stopper'
p988
I1
sS'fulls'
p989
I1
sS'pregnant'
p990
I1
sS'always'
p991
I3
sS'found'
p992
I12
sS'difficult'
p993
I2
sS'needless'
p994
I2
sS'house'
p995
I3
sS'hard'
p996
I3
sS'idea'
p997
I1
sS'connect'
p998
I1
sS'really'
p999
I11
sS'leave'
p1000
I3
sS'missed'
p1001
I1
sS'surrounded'
p1002
I1
sS'pigeon'
p1003
I1
sS'safety'
p1004
I2
sS'denoted'
p1005
I1
sS'issue'
p1006
I1
sS'highway'
p1007
I2
sS'tenerloin'
p1008
I1
sS'housed'
p1009
I1
sS'dirt'
p1010
I1
sS'guess'
p1011
I1
sS'pleasant'
p1012
I2
sS'houses'
p1013
I1
sS'reason'
p1014
I1
sS'unsightly'
p1015
I1
sS'conditioning'
p1016
I2
sS'dire'
p1017
I1
sS'imagine'
p1018
I1
sS'ask'
p1019
I3
sS'attendant'
p1020
I1
sS'owners'
p1021
I1
sS'terrible'
p1022
I8
sS'noted'
p1023
I1
sS'terribly'
p1024
I1
sS'audacity'
p1025
I1
sS'top'
p1026
I1
sS'major'
p1027
I5
sS'feel'
p1028
I8
sS'mistakenly'
p1029
I1
sS'knocking'
p1030
I2
sS'done'
p1031
I3
sS'fees'
p1032
I1
sS'bland'
p1033
I1
sS'traveler'
p1034
I2
sS'story'
p1035
I1
sS'guest'
p1036
I4
sS'least'
p1037
I5
sS'paint'
p1038
I1
sS'flimsy'
p1039
I1
sS'station'
p1040
I2
sS'store'
p1041
I1
sS'hotel'
p1042
I124
sS'park'
p1043
I2
sS'part'
p1044
I5
sS'believe'
p1045
I2
sS'stairs'
p1046
I4
sS'king'
p1047
I2
sS'kind'
p1048
I1
sS'b'
p1049
I2
sS'squeaky'
p1050
I1
sS'double'
p1051
I1
sS'getaway'
p1052
I1
sS'supposed'
p1053
I1
sS'stale'
p1054
I1
sS'treated'
p1055
I3
sS'cleaner'
p1056
I1
sS'picked'
p1057
I2
sS'refrigerators'
p1058
I1
sS'suspicious'
p1059
I1
sS'showers'
p1060
I2
sS'cleaned'
p1061
I6
sS'philly'
p1062
I2
sS'remodel'
p1063
I1
sS'ratings'
p1064
I1
sS'speaking'
p1065
I1
sS'eeeeeek'
p1066
I1
sS'self'
p1067
I1
sS'commotion'
p1068
I1
sS'spreadings'
p1069
I1
sS'also'
p1070
I23
sS'play'
p1071
I1
sS'caliber'
p1072
I1
sS'inconvenience'
p1073
I1
sS'cigarette'
p1074
I1
sS'brooklyn'
p1075
I2
sS'charm'
p1076
I1
sS'plan'
p1077
I1
sS'nothing'
p1078
I6
sS'extremely'
p1079
I8
sS'windows'
p1080
I3
sS'sometimes'
p1081
I1
sS'cover'
p1082
I2
sS'unreasonable'
p1083
I1
sS'clean'
p1084
I11
sS'taxi'
p1085
I1
sS'cereal'
p1086
I1
sS'vending'
p1087
I2
sS'accommodations'
p1088
I3
sS'fine'
p1089
I4
sS'find'
p1090
I17
sS'access'
p1091
I2
sS'ruin'
p1092
I1
sS'unhappy'
p1093
I1
sS'starters'
p1094
I1
sS'flights'
p1095
I1
sS'pretty'
p1096
I9
sS'circle'
p1097
I2
sS'grocery'
p1098
I1
sS'cheaper'
p1099
I1
sS'famous'
p1100
I1
sS'feels'
p1101
I2
sS'closely'
p1102
I1
sS'emails'
p1103
I1
sS'enemy'
p1104
I2
sS'unenjoyable'
p1105
I1
sS'generally'
p1106
I1
sS'remove'
p1107
I1
sS'activity'
p1108
I1
sS'hype'
p1109
I1
sS'restaurants'
p1110
I3
sS'manger'
p1111
I1
sS'bars'
p1112
I1
sS'set'
p1113
I1
sS'sex'
p1114
I2
sS'culture'
p1115
I1
sS'see'
p1116
I4
sS'bare'
p1117
I1
sS'close'
p1118
I3
sS'visiting'
p1119
I3
sS'movie'
p1120
I1
sS'please'
p1121
I1
sS'case'
p1122
I1
sS'probably'
p1123
I4
sS'conditions'
p1124
I2
sS'knowing'
p1125
I1
sS'mildew'
p1126
I3
sS'responses'
p1127
I1
sS'missing'
p1128
I1
sS'premises'
p1129
I1
sS'sold'
p1130
I2
sS'attention'
p1131
I2
sS'spray'
p1132
I1
sS'last'
p1133
I8
sS'restaurant'
p1134
I6
sS'fiance'
p1135
I1
sS'barely'
p1136
I4
sS'connection'
p1137
I2
sS'became'
p1138
I2
sS'let'
p1139
I2
sS'whole'
p1140
I3
sS'wouldnt'
p1141
I2
sS'headed'
p1142
I1
sS'simple'
p1143
I1
sS'simply'
p1144
I2
sS'carnivalthe'
p1145
I1
sS'throughout'
p1146
I1
sS'expensive'
p1147
I1
sS'filth'
p1148
I1
sS'due'
p1149
I6
sS'pa'
p1150
I1
sS'maintenance'
p1151
I2
sS'woke'
p1152
I2
sS'pm'
p1153
I1
sS'flight'
p1154
I1
sS'gas'
p1155
I1
sS'else'
p1156
I2
sS'specifically'
p1157
I1
sS'prices'
p1158
I5
sS'wedding'
p1159
I1
sS'georgia'
p1160
I1
sS'soiled'
p1161
I1
sS'look'
p1162
I2
sS'frozen'
p1163
I1
sS'bill'
p1164
I1
sS'replaced'
p1165
I2
sS'fun'
p1166
I1
sS'hoping'
p1167
I1
sS'disappointing'
p1168
I1
sS'rio'
p1169
I1
sS'ready'
p1170
I5
sS'rid'
p1171
I3
sS'funny'
p1172
I1
sS'decor'
p1173
I3
sS'maids'
p1174
I1
sS'makeshift'
p1175
I1
sS'grand'
p1176
I1
sS'itchy'
p1177
I1
sS'higher'
p1178
I1
sS'hallway'
p1179
I5
sS'used'
p1180
I2
sS'displeased'
p1181
I1
sS'keys'
p1182
I4
sS'layovers'
p1183
I1
sS'existent'
p1184
I1
sS'moment'
p1185
I2
sS'nights'
p1186
I3
sS'arrived'
p1187
I13
sS'cleaning'
p1188
I5
sS'plugs'
p1189
I1
sS'recent'
p1190
I2
sS'dark'
p1191
I2
sS'anybody'
p1192
I1
sS'person'
p1193
I8
sS'historic'
p1194
I2
sS'spend'
p1195
I4
sS'grossly'
p1196
I1
sS'ambassador'
p1197
I1
sS'chalong'
p1198
I2
sS'aliante'
p1199
I2
sS'rumbling'
p1200
I1
sS'questions'
p1201
I2
sS'rundown'
p1202
I1
sS'tables'
p1203
I1
sS'disappointed'
p1204
I3
sS'workers'
p1205
I1
sS'exclusively'
p1206
I1
sS'location'
p1207
I14
sS'excited'
p1208
I1
sS'complaint'
p1209
I1
sS'lacking'
p1210
I1
sS'big'
p1211
I4
sS'couple'
p1212
I1
sS'matters'
p1213
I1
sS'game'
p1214
I1
sS'damage'
p1215
I1
sS'bit'
p1216
I2
sS'sharpened'
p1217
I1
sS'like'
p1218
I29
sS'knock'
p1219
I1
sS'disrepair'
p1220
I1
sS'semi'
p1221
I1
sS'ignore'
p1222
I1
sS'individuals'
p1223
I1
sS'popular'
p1224
I2
sS'unhindered'
p1225
I1
sS'google'
p1226
I1
sS'often'
p1227
I2
sS'absolutely'
p1228
I2
sS'back'
p1229
I19
sS'added'
p1230
I1
sS'palm'
p1231
I1
sS'pricing'
p1232
I1
sS'delivered'
p1233
I2
sS'decision'
p1234
I1
sS'firecracker'
p1235
I1
sS'per'
p1236
I1
sS'minimal'
p1237
I1
sS'run'
p1238
I3
sS'odor'
p1239
I1
sS'offenders'
p1240
I2
sS'refused'
p1241
I1
sS'nowhere'
p1242
I1
sS'housekeeping'
p1243
I6
sS'anything'
p1244
I5
sS'exaggerated'
p1245
I1
sS'plaza'
p1246
I2
sS'melbourne'
p1247
I1
sS'experiences'
p1248
I1
sS'complimentary'
p1249
I1
sS'repair'
p1250
I1
sS'colorado'
p1251
I2
sS'garbage'
p1252
I2
sS'within'
p1253
I1
sS'services'
p1254
I1
sS'kailua'
p1255
I1
sS'smells'
p1256
I2
sS'jameson'
p1257
I1
sS'handles'
p1258
I1
sS'amidst'
p1259
I1
sS'housekeepers'
p1260
I1
sS'summertime'
p1261
I1
sS'elsewhere'
p1262
I1
sS'optimist'
p1263
I1
sS'properly'
p1264
I1
sS'dull'
p1265
I1
sS'permissable'
p1266
I1
sS'vacancies'
p1267
I1
sS'us'
p1268
I32
sS'similar'
p1269
I1
sS'called'
p1270
I8
sS'bell'
p1271
I1
sS'curt'
p1272
I1
sS'popularity'
p1273
I1
sS'ordered'
p1274
I2
sS'steeped'
p1275
I1
sS'warning'
p1276
I1
sS'cafe'
p1277
I1
sS'lemon'
p1278
I1
sS'definitely'
p1279
I3
sS'electrical'
p1280
I1
sS'nice'
p1281
I12
sS'scrub'
p1282
I1
sS'users'
p1283
I1
sS'gross'
p1284
I3
sS'problems'
p1285
I1
sS'prepared'
p1286
I2
sS'helping'
p1287
I1
sS'allowing'
p1288
I1
sS'drab'
p1289
I2
sS'reservation'
p1290
I4
sS'meals'
p1291
I3
sS'freeways'
p1292
I1
sS'ago'
p1293
I1
sS'e'
p1294
I1
sS'overlooking'
p1295
I1
sS'valuables'
p1296
I1
sS'required'
p1297
I2
sS'walked'
p1298
I4
sS'carrying'
p1299
I1
sS'lafayette'
p1300
I2
sS'literally'
p1301
I3
sS'fresh'
p1302
I2
sS'buffalo'
p1303
I1
sS'sounded'
p1304
I2
sS'code'
p1305
I1
sS'partial'
p1306
I1
sS'enjoyable'
p1307
I1
sS'ga'
p1308
I1
sS'go'
p1309
I7
sS'seemed'
p1310
I10
sS'young'
p1311
I2
sS'send'
p1312
I2
sS'suite'
p1313
I3
sS'friendly'
p1314
I3
sS'sent'
p1315
I2
sS'random'
p1316
I3
sS'roaches'
p1317
I1
sS'entire'
p1318
I6
sS'transmission'
p1319
I1
sS'try'
p1320
I1
sS'rack'
p1321
I2
sS'unsatisfied'
p1322
I1
sS'frigid'
p1323
I1
sS'blowing'
p1324
I1
sS'traveling'
p1325
I2
sS'uncomfortable'
p1326
I6
sS'reunion'
p1327
I1
sS'odd'
p1328
I1
sS'makers'
p1329
I1
sS'asap'
p1330
I1
sS'valet'
p1331
I1
sS'cell'
p1332
I1
sS'waiting'
p1333
I2
sS'twins'
p1334
I1
sS'refilled'
p1335
I1
sS'body'
p1336
I2
sS'led'
p1337
I1
sS'chose'
p1338
I2
sS'commercial'
p1339
I1
sS'objects'
p1340
I1
sS'focused'
p1341
I1
sS'sink'
p1342
I2
sS'pancake'
p1343
I1
sS'others'
p1344
I2
sS'safer'
p1345
I1
sS'vinegar'
p1346
I1
sS'great'
p1347
I8
sS'uneasy'
p1348
I1
sS'receive'
p1349
I1
sS'involved'
p1350
I1
sS'casino'
p1351
I7
sS'shades'
p1352
I1
sS'haunts'
p1353
I1
sS'leaving'
p1354
I1
sS'products'
p1355
I1
sS'armpit'
p1356
I1
sS'popcorn'
p1357
I1
sS'opinion'
p1358
I1
sS'residents'
p1359
I1
sS'makes'
p1360
I2
sS'motor'
p1361
I1
sS'tap'
p1362
I1
sS'boasts'
p1363
I1
sS'standing'
p1364
I3
sS'use'
p1365
I2
sS'fee'
p1366
I1
sS'illegal'
p1367
I1
sS'next'
p1368
I12
sS'doubt'
p1369
I1
sS'snobbish'
p1370
I1
sS'started'
p1371
I2
sS'folks'
p1372
I1
sS'train'
p1373
I1
sS'customer'
p1374
I3
sS'animals'
p1375
I1
sS'salad'
p1376
I1
sS'locks'
p1377
I1
sS'creepy'
p1378
I1
sS'anywhere'
p1379
I1
sS'obvious'
p1380
I3
sS'thin'
p1381
I5
sS'meet'
p1382
I1
sS'wharf'
p1383
I1
sS'reserved'
p1384
I1
sS'lock'
p1385
I1
sS'high'
p1386
I5
sS'pulling'
p1387
I1
sS'something'
p1388
I8
sS'six'
p1389
I1
sS'delay'
p1390
I1
sS'located'
p1391
I5
sS'lamp'
p1392
I1
sS'instead'
p1393
I1
sS'stock'
p1394
I1
sS'peeling'
p1395
I3
sS'bothered'
p1396
I1
sS'belongings'
p1397
I1
sS'marriott'
p1398
I1
sS'realized'
p1399
I3
sS'light'
p1400
I4
sS'counter'
p1401
I2
sS'interrupted'
p1402
I1
sS'allow'
p1403
I1
sS'crawling'
p1404
I4
sS'pastries'
p1405
I2
sS'unmade'
p1406
I1
sS'move'
p1407
I2
sS'looks'
p1408
I1
sS'belltown'
p1409
I1
sS'bedsheets'
p1410
I1
sS'la'
p1411
I1
sS'degrees'
p1412
I1
sS'choose'
p1413
I1
sS'covered'
p1414
I1
sS'holiday'
p1415
I1
sS'crowds'
p1416
I1
sS'junction'
p1417
I1
sS'detergents'
p1418
I1
sS'cutting'
p1419
I1
sS'front'
p1420
I20
sS'cage'
p1421
I1
sS'day'
p1422
I12
sS'heated'
p1423
I2
sS'ambiance'
p1424
I1
sS'sexual'
p1425
I1
sS'special'
p1426
I2
sS'oked'
p1427
I1
sS'lukewarm'
p1428
I1
sS'inch'
p1429
I1
sS'extenders'
p1430
I1
sS'cause'
p1431
I1
sS'red'
p1432
I3
sS'shut'
p1433
I1
sS'approached'
p1434
I1
sS'bedbugs'
p1435
I4
sS'completely'
p1436
I2
sS'york'
p1437
I1
sS'could'
p1438
I24
sS'florida'
p1439
I2
sS'times'
p1440
I6
sS'biting'
p1441
I1
sS'south'
p1442
I2
sS'rudely'
p1443
I1
sS'owner'
p1444
I1
sS'mandatory'
p1445
I1
sS'quality'
p1446
I7
sS'management'
p1447
I1
sS'sadly'
p1448
I1
sS'ordering'
p1449
I1
sS'establishments'
p1450
I1
sS'renovation'
p1451
I1
sS'priority'
p1452
I1
sS'exactly'
p1453
I1
sS'july'
p1454
I2
sS'haven'
p1455
I1
sS'bed'
p1456
I25
sS'visited'
p1457
I2
sS'comfortable'
p1458
I5
sS'receptionist'
p1459
I1
sS'need'
p1460
I8
sS'turn'
p1461
I3
sS'apparently'
p1462
I2
sS'clearly'
p1463
I1
sS'necessities'
p1464
I1
sS'documents'
p1465
I1
sS'venturing'
p1466
I1
sS'dishes'
p1467
I1
sS'able'
p1468
I4
sS'mid'
p1469
I1
sS'waffles'
p1470
I1
sS'mix'
p1471
I1
sS'concerns'
p1472
I1
sS'truck'
p1473
I1
sS'unless'
p1474
I1
sS'connected'
p1475
I1
sS'request'
p1476
I1
sS'face'
p1477
I1
sS'looked'
p1478
I10
sS'pictures'
p1479
I1
sS'normally'
p1480
I1
sS'fact'
p1481
I3
sS'son'
p1482
I1
sS'impression'
p1483
I1
sS'atmosphere'
p1484
I2
sS'selection'
p1485
I1
sS'violation'
p1486
I1
sS'agreed'
p1487
I1
sS'indoor'
p1488
I2
sS'anyway'
p1489
I1
sS'vacancy'
p1490
I2
sS'bring'
p1491
I1
sS'rough'
p1492
I1
sS'staff'
p1493
I24
sS'grabbed'
p1494
I1
sS'hg'
p1495
I1
sS'creamer'
p1496
I1
sS'bourbon'
p1497
I1
sS'local'
p1498
I1
sS'meant'
p1499
I1
sS'means'
p1500
I1
sS'michigan'
p1501
I1
sS'cranky'
p1502
I1
sS'lucky'
p1503
I1
sS'spur'
p1504
I1
sS'areas'
p1505
I4
sS'course'
p1506
I1
sS'calling'
p1507
I1
sS'stuff'
p1508
I3
sS'overflowing'
p1509
I1
sS'fixed'
p1510
I1
sS'view'
p1511
I2
sS'available'
p1512
I6
sS'dillon'
p1513
I1
sS'computer'
p1514
I2
sS'desperate'
p1515
I1
sS'operated'
p1516
I1
sS'recently'
p1517
I4
sS'packed'
p1518
I1
sS'closer'
p1519
I1
sS'attempting'
p1520
I1
sS'nightmare'
p1521
I1
sS'horribly'
p1522
I2
sS'state'
p1523
I2
sS'correctly'
p1524
I1
sS'horrible'
p1525
I8
sS'opening'
p1526
I2
sS'beverages'
p1527
I1
sS'courtyard'
p1528
I1
sS'key'
p1529
I5
sS'thank'
p1530
I1
sS'doubletree'
p1531
I2
sS'freely'
p1532
I1
sS'taking'
p1533
I2
sS'drug'
p1534
I1
sS'creeping'
p1535
I1
sS'kinds'
p1536
I1
sS'vent'
p1537
I1
sS'toilet'
p1538
I4
sS'wall'
p1539
I6
sS'paranormal'
p1540
I2
sS'walk'
p1541
I5
sS'table'
p1542
I1
sS'unclean'
p1543
I3
sS'addition'
p1544
I1
sS'decent'
p1545
I1
sS'taste'
p1546
I1
sS'drank'
p1547
I1
sS'slowly'
p1548
I2
sS'curtain'
p1549
I1
sS'waste'
p1550
I1
sS'shoulders'
p1551
I1
sS'painted'
p1552
I1
sS'route'
p1553
I1
sS'airplanes'
p1554
I1
sS'deep'
p1555
I1
sS'folding'
p1556
I1
sS'despite'
p1557
I3
sS'plain'
p1558
I1
sS'appearance'
p1559
I2
sS'bathtub'
p1560
I1
sS'almost'
p1561
I8
sS'surprisingly'
p1562
I1
sS'helped'
p1563
I1
sS'inspector'
p1564
I1
sS'began'
p1565
I1
sS'cross'
p1566
I1
sS'member'
p1567
I3
sS'strange'
p1568
I2
sS'shuttle'
p1569
I1
sS'party'
p1570
I5
sS'hammering'
p1571
I1
sS'econo'
p1572
I2
sS'upon'
p1573
I3
sS'lobby'
p1574
I6
sS'center'
p1575
I3
sS'well'
p1576
I10
sS'thought'
p1577
I9
sS'english'
p1578
I1
sS'usual'
p1579
I1
sS'stores'
p1580
I1
sS'less'
p1581
I3
sS'savannah'
p1582
I1
sS'replenish'
p1583
I1
sS'rooms'
p1584
I34
sS'advertised'
p1585
I3
sS'miniscule'
p1586
I1
sS'web'
p1587
I1
sS'point'
p1588
I5
sS'recommending'
p1589
I1
sS'realize'
p1590
I1
sS'reasons'
p1591
I1
sS'wet'
p1592
I1
sS'knob'
p1593
I1
sS'checking'
p1594
I5
sS'dryer'
p1595
I2
sS'five'
p1596
I2
sS'know'
p1597
I1
sS'desk'
p1598
I20
sS'immediately'
p1599
I2
sS'crisp'
p1600
I1
sS'helpful'
p1601
I2
sS'lost'
p1602
I1
sS'hosts'
p1603
I1
sS'agents'
p1604
I1
sS'works'
p1605
I1
sS'replacement'
p1606
I1
sS'accessible'
p1607
I2
sS'shabby'
p1608
I2
sS'suites'
p1609
I1
sS'alive'
p1610
I1
sS'hair'
p1611
I1
sS'home'
p1612
I4
sS'liking'
p1613
I1
sS'stuffy'
p1614
I3
sS'lead'
p1615
I1
sS'hallways'
p1616
I2
sS'bedding'
p1617
I3
sS'fountain'
p1618
I1
sS'assuming'
p1619
I1
sS'ripped'
p1620
I3
sS'noise'
p1621
I4
sS'schedule'
p1622
I1
sS'refurbishing'
p1623
I1
sS'stellar'
p1624
I1
sS'pressure'
p1625
I2
sS'although'
p1626
I2
sS'described'
p1627
I1
sS'noisy'
p1628
I3
sS'sister'
p1629
I1
sS'actual'
p1630
I3
sS'getting'
p1631
I3
sS'carrier'
p1632
I1
sS'swimming'
p1633
I2
sS'brush'
p1634
I1
sS'waikiki'
p1635
I3
sS'additional'
p1636
I1
sS'continental'
p1637
I3
sS'intention'
p1638
I1
sS'enticed'
p1639
I1
sS'function'
p1640
I1
sS'buy'
p1641
I1
sS'north'
p1642
I1
sS'bus'
p1643
I1
sS'blaming'
p1644
I1
sS'construction'
p1645
I8
sS'ear'
p1646
I1
sS'eat'
p1647
I1
sS'made'
p1648
I13
sS'places'
p1649
I3
sS'wish'
p1650
I1
sS'hosting'
p1651
I1
sS'placed'
p1652
I2
sS'empty'
p1653
I2
sS'problem'
p1654
I1
sS'piece'
p1655
I2
sS'minutes'
p1656
I12
sS'reservations'
p1657
I1
sS'universal'
p1658
I1
sS'circus'
p1659
I2
sS'inn'
p1660
I14
sS'unsavory'
p1661
I1
sS'shooting'
p1662
I1
sS'balcony'
p1663
I1
sS'diego'
p1664
I1
sS'compared'
p1665
I2
sS'incredible'
p1666
I1
sS'lately'
p1667
I1
sS'book'
p1668
I1
sS'sick'
p1669
I1
sS'francisco'
p1670
I2
sS'star'
p1671
I1
sS'stay'
p1672
I45
sS'chance'
p1673
I1
sS'additionally'
p1674
I2
sS'priced'
p1675
I2
sS'friends'
p1676
I2
sS'lasted'
p1677
I1
sS'representative'
p1678
I1
ssS'pos'
p1679
g2
(g3
tp1680
Rp1681
S'saver'
p1682
I1
sS'four'
p1683
I3
sS'facilities'
p1684
I2
sS'sleep'
p1685
I2
sS'ornate'
p1686
I1
sS'saved'
p1687
I2
sS'eligible'
p1688
I1
sS'remodeled'
p1689
I2
sS'slipping'
p1690
I1
sS'worth'
p1691
I2
sS'updated'
p1692
I3
sS'connects'
p1693
I1
sS'every'
p1694
I4
sS'bringing'
p1695
I1
sS'tickets'
p1696
I1
sS'school'
p1697
I1
sS'skills'
p1698
I1
sS'convenience'
p1699
I3
sS'snorkling'
p1700
I1
sS'enjoy'
p1701
I9
sS'jamaica'
p1702
I1
sS'tired'
p1703
I1
sS'construed'
p1704
I1
sS'bacon'
p1705
I2
sS'japanese'
p1706
I1
sS'elegant'
p1707
I6
sS'likely'
p1708
I2
sS'street'
p1709
I8
sS'kentucky'
p1710
I1
sS'oread'
p1711
I1
sS'snuggled'
p1712
I1
sS'machines'
p1713
I1
sS'even'
p1714
I20
sS'lights'
p1715
I1
sS'new'
p1716
I3
sS'ever'
p1717
I14
sS'disney'
p1718
I2
sS'counters'
p1719
I1
sS'pancakes'
p1720
I1
sS'never'
p1721
I3
sS'bookcase'
p1722
I1
sS'kids'
p1723
I7
sS'daughter'
p1724
I5
sS'luggage'
p1725
I1
sS'auction'
p1726
I1
sS'items'
p1727
I1
sS'employees'
p1728
I1
sS'girlfrind'
p1729
I1
sS'suitable'
p1730
I1
sS'golden'
p1731
I3
sS'fantastic'
p1732
I5
sS'brought'
p1733
I1
sS'lavatory'
p1734
I1
sS'guests'
p1735
I3
sS'landscape'
p1736
I1
sS'would'
p1737
I22
sS'army'
p1738
I1
sS'calm'
p1739
I2
sS'recommend'
p1740
I10
sS'tell'
p1741
I1
sS'females'
p1742
I1
sS'relax'
p1743
I12
sS'phone'
p1744
I1
sS'warm'
p1745
I3
sS'excellent'
p1746
I10
sS'outdated'
p1747
I1
sS'authentically'
p1748
I1
sS'abundance'
p1749
I1
sS'tastefully'
p1750
I1
sS'room'
p1751
I86
sS'candelabra'
p1752
I1
sS'famed'
p1753
I1
sS'work'
p1754
I5
sS'worn'
p1755
I1
sS'movies'
p1756
I2
sS'era'
p1757
I1
sS'already'
p1758
I1
sS'elegantly'
p1759
I1
sS'omelets'
p1760
I1
sS'give'
p1761
I1
sS'organized'
p1762
I1
sS'bellman'
p1763
I1
sS'want'
p1764
I6
sS'times'
p1765
I10
sS'absolute'
p1766
I1
sS'provide'
p1767
I1
sS'travel'
p1768
I6
sS'sitting'
p1769
I1
sS'feature'
p1770
I1
sS'revisit'
p1771
I1
sS'hot'
p1772
I9
sS'adjacent'
p1773
I1
sS'interview'
p1774
I1
sS'gate'
p1775
I3
sS'beach'
p1776
I21
sS'pizza'
p1777
I1
sS'description'
p1778
I1
sS'earlier'
p1779
I2
sS'decor'
p1780
I9
sS'customs'
p1781
I1
sS'wrong'
p1782
I2
sS'las'
p1783
I4
sS'purchase'
p1784
I1
sS'attempt'
p1785
I1
sS'pullout'
p1786
I1
sS'enter'
p1787
I2
sS'order'
p1788
I6
sS'office'
p1789
I1
sS'deck'
p1790
I2
sS'welcomed'
p1791
I1
sS'walgreens'
p1792
I1
sS'satisfied'
p1793
I1
sS'jacuzzi'
p1794
I2
sS'japan'
p1795
I2
sS'wrought'
p1796
I1
sS'somewhere'
p1797
I1
sS'highlights'
p1798
I1
sS'expectations'
p1799
I2
sS'denver'
p1800
I1
sS'better'
p1801
I7
sS'strand'
p1802
I1
sS'glanced'
p1803
I1
sS'coffee'
p1804
I6
sS'tourist'
p1805
I3
sS'workout'
p1806
I1
sS'safe'
p1807
I1
sS'break'
p1808
I2
sS'rocks'
p1809
I1
sS'filling'
p1810
I1
sS'spotless'
p1811
I1
sS'mead'
p1812
I2
sS'reasonable'
p1813
I2
sS'fitness'
p1814
I2
sS'went'
p1815
I12
sS'meal'
p1816
I2
sS'concord'
p1817
I1
sS'bowls'
p1818
I1
sS'fairmont'
p1819
I1
sS'dawn'
p1820
I1
sS'driving'
p1821
I1
sS'open'
p1822
I2
sS'motel'
p1823
I6
sS'washed'
p1824
I1
sS'sand'
p1825
I1
sS'content'
p1826
I1
sS'heavenly'
p1827
I1
sS'got'
p1828
I5
sS'newly'
p1829
I2
sS'taos'
p1830
I2
sS'free'
p1831
I12
sS'wanted'
p1832
I2
sS'ate'
p1833
I1
sS'created'
p1834
I1
sS'days'
p1835
I5
sS'creates'
p1836
I1
sS'shipped'
p1837
I1
sS'loud'
p1838
I1
sS'slept'
p1839
I2
sS'daunting'
p1840
I1
sS'features'
p1841
I2
sS'attractions'
p1842
I6
sS'featured'
p1843
I2
sS'floors'
p1844
I4
sS'delicious'
p1845
I8
sS'comforter'
p1846
I1
sS'thick'
p1847
I1
sS'aire'
p1848
I3
sS'service'
p1849
I20
sS'venodors'
p1850
I1
sS'top'
p1851
I2
sS'girls'
p1852
I1
sS'elevator'
p1853
I2
sS'plentiful'
p1854
I1
sS'needed'
p1855
I1
sS'rates'
p1856
I2
sS'wildly'
p1857
I1
sS'quinta'
p1858
I1
sS'dogs'
p1859
I3
sS'gym'
p1860
I1
sS'took'
p1861
I4
sS'cereal'
p1862
I3
sS'positively'
p1863
I1
sS'distance'
p1864
I7
sS'surrounding'
p1865
I1
sS'told'
p1866
I2
sS'shower'
p1867
I5
sS'matter'
p1868
I1
sS'fabulous'
p1869
I4
sS'speaking'
p1870
I1
sS'historical'
p1871
I1
sS'feeling'
p1872
I1
sS'mini'
p1873
I1
sS'sorrento'
p1874
I1
sS'boston'
p1875
I2
sS'modern'
p1876
I6
sS'mind'
p1877
I1
sS'mine'
p1878
I2
sS'seen'
p1879
I1
sS'quieter'
p1880
I1
sS'convenient'
p1881
I6
sS'snow'
p1882
I3
sS'elegance'
p1883
I1
sS'bengal'
p1884
I2
sS'fitting'
p1885
I1
sS'luxury'
p1886
I3
sS'gravy'
p1887
I1
sS'though'
p1888
I6
sS'victoria'
p1889
I1
sS'extending'
p1890
I1
sS'regular'
p1891
I1
sS'plenty'
p1892
I4
sS'dog'
p1893
I2
sS'definitely'
p1894
I10
sS'entertaining'
p1895
I1
sS'came'
p1896
I2
sS'renting'
p1897
I1
sS'contacted'
p1898
I1
sS'queen'
p1899
I2
sS'earth'
p1900
I1
sS'enjoyed'
p1901
I6
sS'busy'
p1902
I1
sS'layout'
p1903
I1
sS'quaint'
p1904
I2
sS'menu'
p1905
I3
sS'weekends'
p1906
I2
sS'folded'
p1907
I1
sS'rico'
p1908
I1
sS'lodge'
p1909
I1
sS'adequate'
p1910
I1
sS'monica'
p1911
I1
sS'colorful'
p1912
I1
sS'watch'
p1913
I3
sS'cardinals'
p1914
I1
sS'coast'
p1915
I2
sS'haunted'
p1916
I1
sS'despite'
p1917
I1
sS'bridge'
p1918
I2
sS'runs'
p1919
I1
sS'bar'
p1920
I10
sS'die'
p1921
I1
sS'nicely'
p1922
I2
sS'twice'
p1923
I1
sS'bad'
p1924
I3
sS'architecture'
p1925
I2
sS'steak'
p1926
I1
sS'ruins'
p1927
I1
sS'fair'
p1928
I1
sS'fluffy'
p1929
I2
sS'restaraunts'
p1930
I1
sS'decided'
p1931
I8
sS'best'
p1932
I19
sS'pete'
p1933
I2
sS'said'
p1934
I2
sS'lots'
p1935
I2
sS'away'
p1936
I16
sS'interviewing'
p1937
I1
sS'pets'
p1938
I2
sS'sorts'
p1939
I1
sS'encounters'
p1940
I1
sS'pirate'
p1941
I1
sS'privilege'
p1942
I1
sS'lazy'
p1943
I1
sS'smelled'
p1944
I2
sS'however'
p1945
I3
sS'wi'
p1946
I1
sS'aquarium'
p1947
I1
sS'packages'
p1948
I2
sS'kitchen'
p1949
I2
sS'climate'
p1950
I1
sS'cot'
p1951
I1
sS'country'
p1952
I1
sS'gasped'
p1953
I1
sS'iron'
p1954
I1
sS'faces'
p1955
I1
sS'expense'
p1956
I1
sS'asked'
p1957
I3
sS'tons'
p1958
I2
sS'towels'
p1959
I6
sS'majestic'
p1960
I1
sS'loaded'
p1961
I1
sS'conference'
p1962
I5
sS'bathroom'
p1963
I14
sS'union'
p1964
I4
sS'dusting'
p1965
I1
sS'three'
p1966
I3
sS'quickly'
p1967
I5
sS'much'
p1968
I7
sS'stadium'
p1969
I2
sS'expected'
p1970
I2
sS'entered'
p1971
I3
sS'lovely'
p1972
I1
sS'threw'
p1973
I1
sS'website'
p1974
I2
sS'life'
p1975
I5
sS'families'
p1976
I3
sS'relaxing'
p1977
I3
sS'lauderdale'
p1978
I1
sS'child'
p1979
I1
sS'galvez'
p1980
I3
sS'worked'
p1981
I1
sS'chill'
p1982
I1
sS'professionally'
p1983
I2
sS'air'
p1984
I4
sS'near'
p1985
I6
sS'neat'
p1986
I1
sS'property'
p1987
I3
sS'pyramid'
p1988
I2
sS'upscale'
p1989
I2
sS'cucumbers'
p1990
I1
sS'exterior'
p1991
I1
sS'ginza'
p1992
I1
sS'seattle'
p1993
I2
sS'make'
p1994
I7
sS'airport'
p1995
I1
sS'plated'
p1996
I1
sS'beside'
p1997
I1
sS'split'
p1998
I1
sS'several'
p1999
I8
sS'hand'
p2000
I2
sS'characters'
p2001
I1
sS'opportunity'
p2002
I2
sS'kid'
p2003
I2
sS'butter'
p2004
I2
sS'kept'
p2005
I5
sS'ocean'
p2006
I4
sS'burgers'
p2007
I1
sS'hearty'
p2008
I1
sS'greatest'
p2009
I2
sS'alabama'
p2010
I1
sS'corporate'
p2011
I2
sS'massaging'
p2012
I1
sS'left'
p2013
I5
sS'thanks'
p2014
I1
sS'yet'
p2015
I3
sS'note'
p2016
I1
sS'hills'
p2017
I1
sS'dining'
p2018
I5
sS'royal'
p2019
I2
sS'spread'
p2020
I1
sS'save'
p2021
I1
sS'gave'
p2022
I2
sS'lcd'
p2023
I1
sS'sanitary'
p2024
I1
sS'unique'
p2025
I2
sS'personalized'
p2026
I1
sS'offices'
p2027
I1
sS'night'
p2028
I17
sS'hung'
p2029
I1
sS'security'
p2030
I1
sS'right'
p2031
I14
sS'old'
p2032
I5
sS'creek'
p2033
I1
sS'deal'
p2034
I4
sS'people'
p2035
I3
sS'clubs'
p2036
I1
sS'sure'
p2037
I3
sS'hassle'
p2038
I1
sS'poolside'
p2039
I1
sS'dear'
p2040
I1
sS'multiple'
p2041
I1
sS'phenomenal'
p2042
I1
sS'ice'
p2043
I1
sS'everything'
p2044
I13
sS'christmas'
p2045
I2
sS'booking'
p2046
I1
sS'discount'
p2047
I2
sS'paid'
p2048
I2
sS'memorable'
p2049
I1
sS'super'
p2050
I1
sS'months'
p2051
I1
sS'dinner'
p2052
I3
sS'plus'
p2053
I3
sS'afternoon'
p2054
I1
sS'islands'
p2055
I1
sS'curry'
p2056
I1
sS'honeymoon'
p2057
I1
sS'delighted'
p2058
I1
sS'son'
p2059
I2
sS'lies'
p2060
I1
sS'refined'
p2061
I2
sS'hotle'
p2062
I1
sS'america'
p2063
I2
sS'absolutely'
p2064
I14
sS'way'
p2065
I8
sS'therefore'
p2066
I1
sS'head'
p2067
I1
sS'form'
p2068
I2
sS'offer'
p2069
I2
sS'wireless'
p2070
I1
sS'surrender'
p2071
I1
sS'true'
p2072
I2
sS'fort'
p2073
I1
sS'paneled'
p2074
I1
sS'inside'
p2075
I6
sS'attached'
p2076
I1
sS'bargain'
p2077
I2
sS'crystal'
p2078
I2
sS'southernmost'
p2079
I1
sS'inclusive'
p2080
I2
sS'clive'
p2081
I1
sS'saltwater'
p2082
I1
sS'ship'
p2083
I1
sS'trip'
p2084
I13
sS'nh'
p2085
I1
sS'waldorf'
p2086
I1
sS'floor'
p2087
I6
sS'accomodating'
p2088
I2
sS'generally'
p2089
I1
sS'reality'
p2090
I2
sS'ny'
p2091
I1
sS'setting'
p2092
I1
sS'soundly'
p2093
I1
sS'smell'
p2094
I1
sS'roll'
p2095
I1
sS'palms'
p2096
I1
sS'surprise'
p2097
I1
sS'welcome'
p2098
I4
sS'trailers'
p2099
I1
sS'fell'
p2100
I1
sS'weekend'
p2101
I6
sS'glass'
p2102
I1
sS'together'
p2103
I1
sS'accented'
p2104
I1
sS'beds'
p2105
I11
sS'reception'
p2106
I2
sS'time'
p2107
I23
sS'themed'
p2108
I2
sS'dance'
p2109
I1
sS'mile'
p2110
I1
sS'microwave'
p2111
I2
sS'skin'
p2112
I1
sS'milk'
p2113
I1
sS'roanoke'
p2114
I2
sS'certainly'
p2115
I4
sS'answered'
p2116
I1
sS'charge'
p2117
I1
sS'vegas'
p2118
I8
sS'bustle'
p2119
I1
sS'stays'
p2120
I1
sS'trouble'
p2121
I2
sS'blast'
p2122
I2
sS'minute'
p2123
I2
sS'cool'
p2124
I1
sS'impressive'
p2125
I1
sS'level'
p2126
I3
sS'turns'
p2127
I1
sS'brother'
p2128
I2
sS'minnie'
p2129
I1
sS'standards'
p2130
I1
sS'leave'
p2131
I1
sS'planning'
p2132
I1
sS'subway'
p2133
I2
sS'team'
p2134
I1
sS'quick'
p2135
I9
sS'dip'
p2136
I1
sS'round'
p2137
I3
sS'upper'
p2138
I2
sS'mn'
p2139
I1
sS'akihabara'
p2140
I1
sS'cost'
p2141
I3
sS'roof'
p2142
I1
sS'drinks'
p2143
I6
sS'cleanliness'
p2144
I2
sS'mall'
p2145
I4
sS'keepsakes'
p2146
I1
sS'margaritaville'
p2147
I1
sS'international'
p2148
I1
sS'appeal'
p2149
I1
sS'filled'
p2150
I1
sS'exercize'
p2151
I1
sS'clerk'
p2152
I3
sS'french'
p2153
I1
sS'water'
p2154
I16
sS'snack'
p2155
I1
sS'alone'
p2156
I1
sS'along'
p2157
I2
sS'roaring'
p2158
I1
sS'change'
p2159
I1
sS'wait'
p2160
I2
sS'boy'
p2161
I1
sS'bygone'
p2162
I1
sS'boast'
p2163
I1
sS'marble'
p2164
I2
sS'bon'
p2165
I3
sS'usually'
p2166
I1
sS'conveniently'
p2167
I3
sS'montreal'
p2168
I1
sS'breathtaking'
p2169
I2
sS'love'
p2170
I7
sS'extra'
p2171
I3
sS'marvelous'
p2172
I1
sS'market'
p2173
I2
sS'hotels'
p2174
I15
sS'handled'
p2175
I1
sS'working'
p2176
I2
sS'positive'
p2177
I1
sS'hyatt'
p2178
I3
sS'visit'
p2179
I9
sS'sports'
p2180
I1
sS'live'
p2181
I5
sS'going'
p2182
I6
sS'club'
p2183
I1
sS'apparent'
p2184
I1
sS'oregon'
p2185
I1
sS'chocolate'
p2186
I1
sS'downtown'
p2187
I6
sS'mansfield'
p2188
I1
sS'fly'
p2189
I1
sS'tokyo'
p2190
I10
sS'car'
p2191
I3
sS'originally'
p2192
I1
sS'reviews'
p2193
I2
sS'wallet'
p2194
I1
sS'values'
p2195
I1
sS'ferry'
p2196
I2
sS'heart'
p2197
I1
sS'crazy'
p2198
I1
sS'awesome'
p2199
I2
sS'heard'
p2200
I1
sS'sandbar'
p2201
I3
sS'spa'
p2202
I4
sS'winter'
p2203
I1
sS'exceptional'
p2204
I2
sS'pine'
p2205
I1
sS'lounge'
p2206
I2
sS'pure'
p2207
I1
sS'tile'
p2208
I1
sS'economy'
p2209
I2
sS'staying'
p2210
I13
sS'mar'
p2211
I2
sS'cocktail'
p2212
I1
sS'information'
p2213
I1
sS'may'
p2214
I1
sS'motorway'
p2215
I1
sS'birthday'
p2216
I2
sS'floral'
p2217
I1
sS'partake'
p2218
I1
sS'data'
p2219
I1
sS'man'
p2220
I1
sS'remember'
p2221
I2
sS'johnson'
p2222
I1
sS'whenever'
p2223
I1
sS'slightly'
p2224
I1
sS'ueno'
p2225
I1
sS'switch'
p2226
I2
sS'lagoon'
p2227
I1
sS'sc'
p2228
I1
sS'tall'
p2229
I1
sS'sf'
p2230
I1
sS'typical'
p2231
I1
sS'furnished'
p2232
I2
sS'midnight'
p2233
I1
sS'years'
p2234
I2
sS'ended'
p2235
I1
sS'still'
p2236
I4
sS'birds'
p2237
I1
sS'splurge'
p2238
I1
sS'supplemented'
p2239
I1
sS'interesting'
p2240
I1
sS'bagels'
p2241
I1
sS'amazing'
p2242
I20
sS'heated'
p2243
I1
sS'attraction'
p2244
I1
sS'window'
p2245
I1
sS'offers'
p2246
I4
sS'spacious'
p2247
I10
sS'farmer'
p2248
I1
sS'endless'
p2249
I1
sS'texas'
p2250
I1
sS'non'
p2251
I1
sS'tropicana'
p2252
I3
sS'views'
p2253
I2
sS'sooner'
p2254
I1
sS'lunch'
p2255
I1
sS'half'
p2256
I1
sS'arriving'
p2257
I1
sS'bath'
p2258
I4
sS'name'
p2259
I2
sS'rock'
p2260
I1
sS'entirely'
p2261
I1
sS'concerts'
p2262
I1
sS'square'
p2263
I6
sS'goose'
p2264
I1
sS'entering'
p2265
I1
sS'year'
p2266
I8
sS'living'
p2267
I1
sS'ultimately'
p2268
I1
sS'space'
p2269
I3
sS'looking'
p2270
I7
sS'seriously'
p2271
I1
sS'miles'
p2272
I1
sS'emerged'
p2273
I1
sS'internet'
p2274
I2
sS'cars'
p2275
I1
sS'quite'
p2276
I5
sS'california'
p2277
I1
sS'card'
p2278
I2
sS'british'
p2279
I1
sS'thing'
p2280
I4
sS'butterflies'
p2281
I1
sS'place'
p2282
I33
sS'invitation'
p2283
I1
sS'charleston'
p2284
I1
sS'think'
p2285
I1
sS'frequent'
p2286
I2
sS'first'
p2287
I17
sS'cheese'
p2288
I2
sS'impossibly'
p2289
I1
sS'crib'
p2290
I1
sS'one'
p2291
I31
sS'fast'
p2292
I1
sS'drove'
p2293
I1
sS'xv'
p2294
I1
sS'size'
p2295
I5
sS'city'
p2296
I12
sS'little'
p2297
I4
sS'checked'
p2298
I1
sS'district'
p2299
I6
sS'phenix'
p2300
I2
sS'duval'
p2301
I1
sS'anyone'
p2302
I6
sS'convention'
p2303
I1
sS'white'
p2304
I3
sS'friend'
p2305
I2
sS'exploring'
p2306
I1
sS'hub'
p2307
I1
sS'hut'
p2308
I1
sS'ginormous'
p2309
I1
sS'flowers'
p2310
I1
sS'appreciated'
p2311
I1
sS'unfortunately'
p2312
I1
sS'structured'
p2313
I1
sS'victorian'
p2314
I1
sS'future'
p2315
I3
sS'venture'
p2316
I2
sS'asleep'
p2317
I1
sS'happy'
p2318
I1
sS'wandering'
p2319
I1
sS'san'
p2320
I6
sS'nicer'
p2321
I2
sS'parking'
p2322
I7
sS'turned'
p2323
I1
sS'sad'
p2324
I1
sS'say'
p2325
I2
sS'breakfast'
p2326
I23
sS'saw'
p2327
I2
sS'ideas'
p2328
I1
sS'terrific'
p2329
I1
sS'equipment'
p2330
I1
sS'ideal'
p2331
I2
sS'take'
p2332
I7
sS'interior'
p2333
I1
sS'roomiest'
p2334
I1
sS'hoover'
p2335
I1
sS'straightening'
p2336
I1
sS'theatre'
p2337
I1
sS'normal'
p2338
I1
sS'price'
p2339
I12
sS'knew'
p2340
I1
sS'buffet'
p2341
I5
sS'falls'
p2342
I1
sS'sheets'
p2343
I3
sS'complaints'
p2344
I2
sS'cleared'
p2345
I1
sS'thsi'
p2346
I1
sS'peninsula'
p2347
I1
sS'beachfront'
p2348
I1
sS'especially'
p2349
I5
sS'average'
p2350
I1
sS'drive'
p2351
I2
sS'wing'
p2352
I1
sS'professional'
p2353
I2
sS'salt'
p2354
I1
sS'luxor'
p2355
I1
sS'walking'
p2356
I9
sS'wynn'
p2357
I2
sS'show'
p2358
I2
sS'cheap'
p2359
I4
sS'contemporary'
p2360
I1
sS'bright'
p2361
I3
sS'corner'
p2362
I1
sS'crashing'
p2363
I1
sS'upgrade'
p2364
I1
sS'gulf'
p2365
I1
sS'written'
p2366
I1
sS'lansing'
p2367
I2
sS'wood'
p2368
I2
sS'hockey'
p2369
I1
sS'equipped'
p2370
I1
sS'watching'
p2371
I1
sS'centrally'
p2372
I1
sS'televisions'
p2373
I1
sS'get'
p2374
I17
sS'jazz'
p2375
I2
sS'truly'
p2376
I1
sS'celebrate'
p2377
I1
sS'leather'
p2378
I1
sS'morning'
p2379
I4
sS'tiki'
p2380
I1
sS'paper'
p2381
I1
sS'husband'
p2382
I5
sS'arrival'
p2383
I2
sS'breslin'
p2384
I1
sS'cocktails'
p2385
I1
sS'college'
p2386
I2
sS'priciest'
p2387
I1
sS'concern'
p2388
I1
sS'suspects'
p2389
I1
sS'ways'
p2390
I1
sS'outside'
p2391
I2
sS'skyscraper'
p2392
I1
sS'refreshed'
p2393
I2
sS'across'
p2394
I6
sS'affordable'
p2395
I4
sS'notice'
p2396
I2
sS'tup'
p2397
I1
sS'screen'
p2398
I5
sS'jr'
p2399
I1
sS'tub'
p2400
I1
sS'come'
p2401
I2
sS'coupons'
p2402
I1
sS'many'
p2403
I13
sS'ballpark'
p2404
I1
sS'quiet'
p2405
I9
sS'tour'
p2406
I2
sS'patrons'
p2407
I1
sS'dated'
p2408
I1
sS'nearby'
p2409
I3
sS'period'
p2410
I1
sS'oxnard'
p2411
I2
sS'sampling'
p2412
I1
sS'maintained'
p2413
I1
sS'boat'
p2414
I1
sS'howard'
p2415
I1
sS'west'
p2416
I5
sS'vacation'
p2417
I13
sS'tropical'
p2418
I1
sS'combined'
p2419
I2
sS'peaceful'
p2420
I3
sS'featuring'
p2421
I1
sS'shopping'
p2422
I7
sS'offered'
p2423
I9
sS'regency'
p2424
I2
sS'wake'
p2425
I1
sS'attentive'
p2426
I1
sS'sound'
p2427
I1
sS'accommodating'
p2428
I4
sS'residence'
p2429
I1
sS'beachside'
p2430
I1
sS'shops'
p2431
I7
sS'penthouse'
p2432
I1
sS'ive'
p2433
I1
sS'bathrooms'
p2434
I4
sS'candies'
p2435
I1
sS'sleeping'
p2436
I3
sS'middle'
p2437
I4
sS'someone'
p2438
I1
sS'capping'
p2439
I1
sS'toiletry'
p2440
I1
sS'everyday'
p2441
I1
sS'worry'
p2442
I1
sS'bags'
p2443
I2
sS'different'
p2444
I5
sS'media'
p2445
I1
sS'cabana'
p2446
I1
sS'check'
p2447
I8
sS'bowels'
p2448
I1
sS'lucian'
p2449
I1
sS'week'
p2450
I3
sS'closest'
p2451
I1
sS'assist'
p2452
I1
sS'driven'
p2453
I1
sS'running'
p2454
I1
sS'fruit'
p2455
I4
sS'climbing'
p2456
I1
sS'westin'
p2457
I6
sS'largely'
p2458
I1
sS'without'
p2459
I4
sS'components'
p2460
I1
sS'model'
p2461
I1
sS'hubby'
p2462
I1
sS'amazed'
p2463
I1
sS'consisted'
p2464
I1
sS'summer'
p2465
I5
sS'outdoor'
p2466
I1
sS'marriot'
p2467
I1
sS'money'
p2468
I4
sS'sights'
p2469
I1
sS'rest'
p2470
I1
sS'touch'
p2471
I1
sS'thinking'
p2472
I1
sS'treatment'
p2473
I1
sS'ghostly'
p2474
I1
sS'real'
p2475
I2
sS'around'
p2476
I8
sS'spectacular'
p2477
I1
sS'virginia'
p2478
I2
sS'dark'
p2479
I2
sS'traffic'
p2480
I1
sS'venues'
p2481
I1
sS'politely'
p2482
I1
sS'world'
p2483
I3
sS'accepted'
p2484
I1
sS'blankets'
p2485
I1
sS'partaking'
p2486
I1
sS'twin'
p2487
I1
sS'either'
p2488
I2
sS'fully'
p2489
I1
sS'served'
p2490
I1
sS'tower'
p2491
I3
sS'competition'
p2492
I1
sS'divine'
p2493
I1
sS'provided'
p2494
I4
sS'shinjuku'
p2495
I1
sS'caribbean'
p2496
I1
sS'mood'
p2497
I1
sS'memories'
p2498
I1
sS'stops'
p2499
I2
sS'hustle'
p2500
I1
sS'emmaculate'
p2501
I1
sS'felt'
p2502
I6
sS'business'
p2503
I4
sS'chefs'
p2504
I1
sS'found'
p2505
I4
sS'exciting'
p2506
I1
sS'throw'
p2507
I1
sS'beaches'
p2508
I1
sS'stone'
p2509
I2
sS'package'
p2510
I1
sS'island'
p2511
I2
sS'teddy'
p2512
I1
sS'favorite'
p2513
I4
sS'side'
p2514
I3
sS'unseasonable'
p2515
I1
sS'wolf'
p2516
I1
sS'act'
p2517
I1
sS'marriott'
p2518
I3
sS'comforters'
p2519
I1
sS'empress'
p2520
I3
sS'strip'
p2521
I6
sS'prepare'
p2522
I1
sS'area'
p2523
I20
sS'distracted'
p2524
I1
sS'lounging'
p2525
I3
sS'start'
p2526
I1
sS'low'
p2527
I1
sS'lot'
p2528
I2
sS'energy'
p2529
I1
sS'immaculate'
p2530
I1
sS'mornings'
p2531
I2
sS'complete'
p2532
I2
sS'enough'
p2533
I4
sS'tranquility'
p2534
I1
sS'amongst'
p2535
I1
sS'walkway'
p2536
I1
sS'pitched'
p2537
I1
sS'downstairs'
p2538
I4
sS'pull'
p2539
I1
sS'rush'
p2540
I1
sS'romantic'
p2541
I1
sS'planters'
p2542
I2
sS'drwaback'
p2543
I1
sS'dirty'
p2544
I1
sS'trips'
p2545
I3
sS'toilet'
p2546
I1
sS'shiodome'
p2547
I3
sS'taste'
p2548
I1
sS'minneapolis'
p2549
I2
sS'girlfriend'
p2550
I2
sS'lifetime'
p2551
I1
sS'unparalleled'
p2552
I1
sS'evenings'
p2553
I2
sS'poor'
p2554
I1
sS'requested'
p2555
I2
sS'games'
p2556
I1
sS'separate'
p2557
I4
sS'slant'
p2558
I1
sS'gifts'
p2559
I1
sS'massachusetts'
p2560
I1
sS'included'
p2561
I5
sS'decorated'
p2562
I2
sS'pool'
p2563
I28
sS'building'
p2564
I6
sS'tiger'
p2565
I1
sS'booked'
p2566
I5
sS'wife'
p2567
I3
sS'wifi'
p2568
I2
sS'god'
p2569
I1
sS'transports'
p2570
I1
sS'surrounded'
p2571
I1
sS'forget'
p2572
I1
sS'lack'
p2573
I1
sS'children'
p2574
I6
sS'preserves'
p2575
I1
sS'tv'
p2576
I8
sS'lining'
p2577
I1
sS'th'
p2578
I1
sS'enjoying'
p2579
I6
sS'roadway'
p2580
I1
sS'activities'
p2581
I2
sS'premium'
p2582
I1
sS'returning'
p2583
I1
sS'far'
p2584
I4
sS'fav'
p2585
I1
sS'fall'
p2586
I2
sS'condition'
p2587
I1
sS'heaven'
p2588
I2
sS'cable'
p2589
I1
sS'louis'
p2590
I1
sS'celebrity'
p2591
I2
sS'laying'
p2592
I1
sS'joined'
p2593
I1
sS'large'
p2594
I12
sS'benning'
p2595
I1
sS'small'
p2596
I11
sS'cookies'
p2597
I1
sS'ten'
p2598
I1
sS'tea'
p2599
I1
sS'past'
p2600
I1
sS'intricate'
p2601
I1
sS'rate'
p2602
I2
sS'design'
p2603
I1
sS'stood'
p2604
I1
sS'sun'
p2605
I2
sS'full'
p2606
I8
sS'hours'
p2607
I1
sS'beacon'
p2608
I2
sS'relaxation'
p2609
I1
sS'steamships'
p2610
I1
sS'colored'
p2611
I3
sS'riviera'
p2612
I3
sS'allows'
p2613
I1
sS'experience'
p2614
I18
sS'amount'
p2615
I1
sS'action'
p2616
I1
sS'options'
p2617
I3
sS'family'
p2618
I11
sS'mexican'
p2619
I1
sS'ask'
p2620
I1
sS'trained'
p2621
I1
sS'takes'
p2622
I1
sS'two'
p2623
I10
sS'pearl'
p2624
I1
sS'amenities'
p2625
I8
sS'gorgeous'
p2626
I5
sS'taken'
p2627
I3
sS'flat'
p2628
I5
sS'door'
p2629
I3
sS'brisk'
p2630
I1
sS'site'
p2631
I1
sS'known'
p2632
I1
sS'glad'
p2633
I1
sS'town'
p2634
I3
sS'grill'
p2635
I2
sS'keeping'
p2636
I1
sS'hour'
p2637
I1
sS'remain'
p2638
I1
sS'greeted'
p2639
I6
sS'mo'
p2640
I1
sS'history'
p2641
I1
sS'beautiful'
p2642
I18
sS'mascone'
p2643
I1
sS'prompt'
p2644
I2
sS'station'
p2645
I5
sS'huge'
p2646
I3
sS'needs'
p2647
I2
sS'answer'
p2648
I1
sS'court'
p2649
I1
sS'terribly'
p2650
I1
sS'rather'
p2651
I1
sS'comfort'
p2652
I2
sS'stayed'
p2653
I30
sS'freshly'
p2654
I1
sS'motels'
p2655
I1
sS'tried'
p2656
I1
sS'advice'
p2657
I1
sS'polynesian'
p2658
I2
sS'coming'
p2659
I2
sS'fi'
p2660
I1
sS'short'
p2661
I2
sS'toiletries'
p2662
I1
sS'overnight'
p2663
I2
sS'grande'
p2664
I3
sS'pay'
p2665
I2
sS'pleasure'
p2666
I3
sS'rentals'
p2667
I2
sS'playing'
p2668
I2
sS'rounded'
p2669
I1
sS'help'
p2670
I2
sS'soon'
p2671
I4
sS'anehiem'
p2672
I1
sS'held'
p2673
I1
sS'embassy'
p2674
I2
sS'hell'
p2675
I1
sS'smiling'
p2676
I1
sS'style'
p2677
I1
sS'termed'
p2678
I1
sS'actually'
p2679
I5
sS'late'
p2680
I3
sS'resort'
p2681
I11
sS'bummer'
p2682
I1
sS'nifty'
p2683
I1
sS'penn'
p2684
I2
sS'travelling'
p2685
I1
sS'might'
p2686
I1
sS'hurting'
p2687
I1
sS'good'
p2688
I13
sS'return'
p2689
I1
sS'seeking'
p2690
I1
sS'food'
p2691
I15
sS'males'
p2692
I1
sS'walls'
p2693
I4
sS'starbucks'
p2694
I2
sS'complain'
p2695
I1
sS'easily'
p2696
I2
sS'always'
p2697
I16
sS'goofy'
p2698
I1
sS'stopped'
p2699
I1
sS'teas'
p2700
I1
sS'accommodated'
p2701
I1
sS'biscuits'
p2702
I1
sS'heavy'
p2703
I1
sS'everyone'
p2704
I3
sS'england'
p2705
I1
sS'another'
p2706
I5
sS'house'
p2707
I3
sS'fish'
p2708
I1
sS'idea'
p2709
I2
sS'exorbitant'
p2710
I1
sS'expect'
p2711
I2
sS'portland'
p2712
I1
sS'beyond'
p2713
I1
sS'event'
p2714
I3
sS'really'
p2715
I9
sS'lovers'
p2716
I1
sS'linens'
p2717
I3
sS'since'
p2718
I5
sS'research'
p2719
I1
sS'hill'
p2720
I1
sS'paradise'
p2721
I1
sS'issue'
p2722
I2
sS'pleasant'
p2723
I7
sS'extraordinary'
p2724
I1
sS'reason'
p2725
I2
sS'disneyland'
p2726
I1
sS'abeyance'
p2727
I1
sS'put'
p2728
I1
sS'bumped'
p2729
I1
sS'owners'
p2730
I1
sS'benefits'
p2731
I1
sS'needing'
p2732
I1
sS'lotions'
p2733
I1
sS'benedict'
p2734
I1
sS'expecting'
p2735
I1
sS'w'
p2736
I1
sS'rainforest'
p2737
I2
sS'castle'
p2738
I2
sS'major'
p2739
I1
sS'feel'
p2740
I9
sS'doughnuts'
p2741
I1
sS'number'
p2742
I1
sS'traveled'
p2743
I1
sS'feet'
p2744
I1
sS'traveler'
p2745
I1
sS'soaps'
p2746
I1
sS'story'
p2747
I1
sS'heads'
p2748
I1
sS'guest'
p2749
I4
sS'gourmet'
p2750
I2
sS'comfy'
p2751
I2
sS'least'
p2752
I2
sS'paint'
p2753
I1
sS'wonderful'
p2754
I10
sS'passed'
p2755
I1
sS'store'
p2756
I1
sS'gps'
p2757
I1
sS'attendants'
p2758
I2
sS'warmly'
p2759
I2
sS'behind'
p2760
I1
sS'hotel'
p2761
I147
sS'park'
p2762
I12
sS'part'
p2763
I3
sS'believe'
p2764
I2
sS'tapestries'
p2765
I1
sS'king'
p2766
I4
sS'kind'
p2767
I1
sS'getaway'
p2768
I2
sS'supposed'
p2769
I1
sS'garland'
p2770
I1
sS'treated'
p2771
I1
sS'risky'
p2772
I1
sS'mickey'
p2773
I1
sS'shpe'
p2774
I1
sS'ages'
p2775
I1
sS'fireside'
p2776
I1
sS'juice'
p2777
I2
sS'alike'
p2778
I1
sS'cleaned'
p2779
I1
sS'horesback'
p2780
I1
sS'philly'
p2781
I2
sS'mountain'
p2782
I1
sS'nights'
p2783
I6
sS'built'
p2784
I1
sS'self'
p2785
I1
sS'commotion'
p2786
I1
sS'couch'
p2787
I3
sS'lit'
p2788
I1
sS'also'
p2789
I29
sS'costs'
p2790
I1
sS'finding'
p2791
I1
sS'mose'
p2792
I1
sS'defintely'
p2793
I1
sS'play'
p2794
I4
sS'towards'
p2795
I1
sS'eggs'
p2796
I6
sS'macy'
p2797
I1
sS'experiences'
p2798
I2
sS'plan'
p2799
I3
sS'nothing'
p2800
I1
sS'extremely'
p2801
I6
sS'reward'
p2802
I1
sS'performances'
p2803
I1
sS'clear'
p2804
I3
sS'huntley'
p2805
I2
sS'cramped'
p2806
I1
sS'clean'
p2807
I33
sS'coincided'
p2808
I1
sS'somewhat'
p2809
I1
sS'stunned'
p2810
I1
sS'accommodations'
p2811
I4
sS'fine'
p2812
I1
sS'find'
p2813
I5
sS'giant'
p2814
I1
sS'etsy'
p2815
I1
sS'justice'
p2816
I1
sS'stairs'
p2817
I1
sS'pretty'
p2818
I3
sS'knowledgeable'
p2819
I2
sS'columns'
p2820
I1
sS'famous'
p2821
I3
sS'preparing'
p2822
I1
sS'basement'
p2823
I1
sS'common'
p2824
I1
sS'recommendations'
p2825
I1
sS'river'
p2826
I2
sS'courteous'
p2827
I2
sS'restaurants'
p2828
I10
sS'bars'
p2829
I1
sS'set'
p2830
I1
sS'art'
p2831
I2
sS'culture'
p2832
I1
sS'see'
p2833
I4
sS'close'
p2834
I6
sS'wyndham'
p2835
I2
sS'freindly'
p2836
I1
sS'visiting'
p2837
I9
sS'pictures'
p2838
I1
sS'various'
p2839
I3
sS'probably'
p2840
I1
sS'champagne'
p2841
I3
sS'available'
p2842
I7
sS'recently'
p2843
I6
sS'creating'
p2844
I1
sS'attention'
p2845
I1
sS'premise'
p2846
I1
sS'last'
p2847
I5
sS'attleboro'
p2848
I1
sS'restaurant'
p2849
I14
sS'luxorious'
p2850
I1
sS'barely'
p2851
I2
sS'connection'
p2852
I1
sS'became'
p2853
I1
sS'whole'
p2854
I1
sS'baltimore'
p2855
I1
sS'upgraded'
p2856
I3
sS'liked'
p2857
I4
sS'point'
p2858
I2
sS'simple'
p2859
I3
sS'storybook'
p2860
I1
sS'simply'
p2861
I7
sS'frosty'
p2862
I1
sS'throughout'
p2863
I3
sS'due'
p2864
I1
sS'hitting'
p2865
I1
sS'secret'
p2866
I1
sS'firm'
p2867
I1
sS'lived'
p2868
I1
sS'packs'
p2869
I1
sS'fire'
p2870
I1
sS'sfmoma'
p2871
I1
sS'gas'
p2872
I1
sS'else'
p2873
I2
sS'pricey'
p2874
I1
sS'prices'
p2875
I2
sS'plants'
p2876
I3
sS'georgia'
p2877
I1
sS'look'
p2878
I5
sS'bill'
p2879
I1
sS'budget'
p2880
I1
sS'fun'
p2881
I5
sS'atlanta'
p2882
I1
sS'guide'
p2883
I1
sS'swim'
p2884
I1
sS'casino'
p2885
I1
sS'everywhere'
p2886
I2
sS'rio'
p2887
I2
sS'shimbashi'
p2888
I2
sS'beautifully'
p2889
I1
sS'ready'
p2890
I4
sS'cuisine'
p2891
I1
sS'lengthy'
p2892
I1
sS'daughters'
p2893
I1
sS'bonus'
p2894
I2
sS'holidays'
p2895
I2
sS'moment'
p2896
I3
sS'arrived'
p2897
I3
sS'staycation'
p2898
I1
sS'sandals'
p2899
I1
sS'recent'
p2900
I2
sS'early'
p2901
I1
sS'picky'
p2902
I1
sS'docked'
p2903
I1
sS'spent'
p2904
I2
sS'snobby'
p2905
I1
sS'historic'
p2906
I1
sS'auditor'
p2907
I1
sS'thoroughly'
p2908
I1
sS'spend'
p2909
I4
sS'questions'
p2910
I2
sS'using'
p2911
I1
sS'letting'
p2912
I1
sS'cut'
p2913
I1
sS'disappointed'
p2914
I1
sS'recommended'
p2915
I1
sS'location'
p2916
I24
sS'excited'
p2917
I1
sS'surprised'
p2918
I1
sS'customers'
p2919
I1
sS'lacking'
p2920
I1
sS'big'
p2921
I6
sS'couple'
p2922
I4
sS'emanating'
p2923
I1
sS'game'
p2924
I2
sS'quest'
p2925
I1
sS'bit'
p2926
I3
sS'like'
p2927
I20
sS'inviting'
p2928
I1
sS'shaped'
p2929
I1
sS'popular'
p2930
I3
sS'stylish'
p2931
I2
sS'partying'
p2932
I1
sS'often'
p2933
I3
sS'sheraton'
p2934
I1
sS'spring'
p2935
I2
sS'back'
p2936
I15
sS'sight'
p2937
I1
sS'mirror'
p2938
I1
sS'trendy'
p2939
I2
sS'jewelry'
p2940
I1
sS'pet'
p2941
I1
sS'decision'
p2942
I1
sS'per'
p2943
I4
sS'eating'
p2944
I1
sS'odor'
p2945
I2
sS'santa'
p2946
I1
sS'cannons'
p2947
I1
sS'housekeeping'
p2948
I1
sS'piles'
p2949
I1
sS'kitchenette'
p2950
I2
sS'plaza'
p2951
I1
sS'range'
p2952
I1
sS'greets'
p2953
I1
sS'charm'
p2954
I1
sS'complimentary'
p2955
I5
sS'shiny'
p2956
I1
sS'block'
p2957
I1
sS'seeing'
p2958
I1
sS'jimmy'
p2959
I1
sS'within'
p2960
I12
sS'primarily'
p2961
I1
sS'fairfield'
p2962
I1
sS'sightseeing'
p2963
I1
sS'impressed'
p2964
I3
sS'arcade'
p2965
I2
sS'long'
p2966
I2
sS'tsukiji'
p2967
I1
sS'housekeepers'
p2968
I1
sS'homemade'
p2969
I1
sS'forward'
p2970
I1
sS'mountains'
p2971
I1
sS'hawaiian'
p2972
I1
sS'relaxed'
p2973
I2
sS'boys'
p2974
I2
sS'properly'
p2975
I1
sS'line'
p2976
I2
sS'directed'
p2977
I2
sS'us'
p2978
I21
sS'exploration'
p2979
I1
sS'faded'
p2980
I1
sS'highlight'
p2981
I1
sS'called'
p2982
I1
sS'ordered'
p2983
I2
sS'adults'
p2984
I3
sS'likewise'
p2985
I1
sS'chat'
p2986
I1
sS'nice'
p2987
I23
sS'smiles'
p2988
I1
sS'visits'
p2989
I1
sS'luxurious'
p2990
I4
sS'helping'
p2991
I1
sS'reservation'
p2992
I1
sS'meals'
p2993
I1
sS'ago'
p2994
I2
sS'notch'
p2995
I1
sS'overlooking'
p2996
I3
sS'practically'
p2997
I1
sS'age'
p2998
I1
sS'walked'
p2999
I4
sS'cooked'
p3000
I1
sS'fresh'
p3001
I9
sS'avoid'
p3002
I1
sS'hampton'
p3003
I1
sS'enjoyable'
p3004
I3
sS'windy'
p3005
I1
sS'go'
p3006
I12
sS'issues'
p3007
I1
sS'peanut'
p3008
I1
sS'wizard'
p3009
I1
sS'young'
p3010
I3
sS'suits'
p3011
I2
sS'ambience'
p3012
I2
sS'suite'
p3013
I5
sS'include'
p3014
I1
sS'friendly'
p3015
I22
sS'starbursts'
p3016
I1
sS'stocked'
p3017
I2
sS'dessert'
p3018
I1
sS'bedrooms'
p3019
I1
sS'pleasent'
p3020
I1
sS'putting'
p3021
I1
sS'drinking'
p3022
I1
sS'entire'
p3023
I3
sS'respectful'
p3024
I1
sS'harbor'
p3025
I2
sS'alltime'
p3026
I1
sS'friendliness'
p3027
I1
sS'smaller'
p3028
I1
sS'traveling'
p3029
I3
sS'picked'
p3030
I1
sS'nephew'
p3031
I1
sS'folk'
p3032
I1
sS'graduating'
p3033
I1
sS'sausage'
p3034
I1
sS'poke'
p3035
I1
sS'paintings'
p3036
I2
sS'giving'
p3037
I1
sS'valet'
p3038
I1
sS'access'
p3039
I3
sS'paying'
p3040
I1
sS'waiting'
p3041
I2
sS'indian'
p3042
I2
sS'flowing'
p3043
I1
sS'pristine'
p3044
I1
sS'refilled'
p3045
I1
sS'leg'
p3046
I1
sS'apologetic'
p3047
I1
sS'delivering'
p3048
I1
sS'objects'
p3049
I1
sS'let'
p3050
I3
sS'consideration'
p3051
I1
sS'great'
p3052
I53
sS'metro'
p3053
I1
sS'receive'
p3054
I2
sS'overseen'
p3055
I1
sS'leaving'
p3056
I1
sS'whisking'
p3057
I1
sS'products'
p3058
I1
sS'opinion'
p3059
I1
sS'makes'
p3060
I4
sS'maker'
p3061
I1
sS'private'
p3062
I2
sS'duck'
p3063
I1
sS'boasts'
p3064
I2
sS'gateway'
p3065
I1
sS'standing'
p3066
I1
sS'next'
p3067
I10
sS'grandest'
p3068
I1
sS'started'
p3069
I1
sS'carvings'
p3070
I1
sS'astoria'
p3071
I1
sS'charming'
p3072
I1
sS'train'
p3073
I1
sS'beachcomber'
p3074
I2
sS'appointed'
p3075
I4
sS'customer'
p3076
I5
sS'aulani'
p3077
I1
sS'ride'
p3078
I1
sS'oh'
p3079
I1
sS'anywhere'
p3080
I1
sS'drops'
p3081
I1
sS'blaine'
p3082
I1
sS'reserved'
p3083
I1
sS'snacks'
p3084
I2
sS'dripping'
p3085
I1
sS'high'
p3086
I4
sS'hilton'
p3087
I1
sS'something'
p3088
I3
sS'tab'
p3089
I1
sS'chic'
p3090
I1
sS'shrimp'
p3091
I1
sS'hesitate'
p3092
I2
sS'sit'
p3093
I2
sS'vibe'
p3094
I1
sS'fortunate'
p3095
I1
sS'located'
p3096
I13
sS'brownstone'
p3097
I1
sS'establishment'
p3098
I2
sS'blocks'
p3099
I5
sS'luxuriously'
p3100
I1
sS'stop'
p3101
I3
sS'counter'
p3102
I1
sS'lines'
p3103
I2
sS'honestly'
p3104
I1
sS'villas'
p3105
I1
sS'allow'
p3106
I1
sS'swimming'
p3107
I2
sS'galveston'
p3108
I3
sS'houston'
p3109
I2
sS'harajuku'
p3110
I1
sS'including'
p3111
I3
sS'perfect'
p3112
I5
sS'write'
p3113
I1
sS'la'
p3114
I1
sS'acres'
p3115
I1
sS'choose'
p3116
I1
sS'puerto'
p3117
I1
sS'holiday'
p3118
I2
sS'dam'
p3119
I1
sS'mention'
p3120
I1
sS'instead'
p3121
I1
sS'front'
p3122
I9
sS'day'
p3123
I6
sS'scenic'
p3124
I1
sS'university'
p3125
I1
sS'delightful'
p3126
I1
sS'pools'
p3127
I2
sS'bills'
p3128
I3
sS'glasses'
p3129
I1
sS'unwind'
p3130
I5
sS'showering'
p3131
I1
sS'goreous'
p3132
I1
sS'ambiance'
p3133
I2
sS'books'
p3134
I1
sS'exceeded'
p3135
I2
sS'special'
p3136
I1
sS'entertainment'
p3137
I1
sS'desert'
p3138
I1
sS'keepsake'
p3139
I1
sS'electronics'
p3140
I1
sS'red'
p3141
I2
sS'promptly'
p3142
I2
sS'attending'
p3143
I1
sS'york'
p3144
I1
sS'moody'
p3145
I1
sS'could'
p3146
I17
sS'florida'
p3147
I5
sS'keep'
p3148
I4
sS'manicured'
p3149
I1
sS'south'
p3150
I2
sS'date'
p3151
I1
sS'quality'
p3152
I4
sS'destinations'
p3153
I1
sS'management'
p3154
I1
sS'fascinating'
p3155
I2
sS'privacy'
p3156
I1
sS'festival'
p3157
I3
sS'establishments'
p3158
I1
sS'perfectly'
p3159
I2
sS'dreary'
p3160
I1
sS'slides'
p3161
I4
sS'twon'
p3162
I1
sS'loved'
p3163
I13
sS'confortable'
p3164
I1
sS'furnishings'
p3165
I1
sS'lion'
p3166
I1
sS'bed'
p3167
I17
sS'appealing'
p3168
I1
sS'comfortable'
p3169
I25
sS'comfortably'
p3170
I1
sS'receptionist'
p3171
I1
sS'need'
p3172
I5
sS'dishes'
p3173
I1
sS'dallas'
p3174
I1
sS'able'
p3175
I7
sS'mid'
p3176
I1
sS'parks'
p3177
I2
sS'waffles'
p3178
I3
sS'soap'
p3179
I1
sS'snacking'
p3180
I1
sS'class'
p3181
I2
sS'request'
p3182
I4
sS'breeze'
p3183
I2
sS'looked'
p3184
I3
sS'scrambled'
p3185
I1
sS'fact'
p3186
I5
sS'atmosphere'
p3187
I6
sS'selection'
p3188
I1
sS'indoor'
p3189
I5
sS'anyway'
p3190
I1
sS'bring'
p3191
I2
sS'bikes'
p3192
I1
sS'bedroom'
p3193
I1
sS'fear'
p3194
I1
sS'decade'
p3195
I1
sS'staff'
p3196
I46
sS'riding'
p3197
I2
sS'photographs'
p3198
I1
sS'means'
p3199
I1
sS'beat'
p3200
I2
sS'unbeatable'
p3201
I1
sS'overall'
p3202
I6
sS'bear'
p3203
I2
sS'sipping'
p3204
I1
sS'ones'
p3205
I1
sS'bead'
p3206
I1
sS'spur'
p3207
I1
sS'areas'
p3208
I3
sS'fridge'
p3209
I4
sS'view'
p3210
I10
sS'national'
p3211
I1
sS'bellhop'
p3212
I1
sS'enhanced'
p3213
I1
sS'superb'
p3214
I1
sS'state'
p3215
I1
sS'closed'
p3216
I1
sS'rendition'
p3217
I1
sS'courtyard'
p3218
I1
sS'key'
p3219
I6
sS'tantrum'
p3220
I1
sS'figured'
p3221
I1
sS'instant'
p3222
I1
sS'doubletree'
p3223
I2
sS'taking'
p3224
I4
sS'etc'
p3225
I2
sS'grounds'
p3226
I1
sS'ca'
p3227
I2
sS'paranormal'
p3228
I1
sS'walk'
p3229
I8
sS'table'
p3230
I3
sS'second'
p3231
I1
sS'addition'
p3232
I4
sS'decent'
p3233
I3
sS'feather'
p3234
I1
sS'naples'
p3235
I3
sS'controlled'
p3236
I1
sS'stationed'
p3237
I1
sS'finished'
p3238
I1
sS'covered'
p3239
I1
sS'smoking'
p3240
I1
sS'brunch'
p3241
I1
sS'main'
p3242
I6
sS'unlike'
p3243
I1
sS'homey'
p3244
I1
sS'value'
p3245
I4
sS'choices'
p3246
I1
sS'stunning'
p3247
I2
sS'wild'
p3248
I1
sS'cereals'
p3249
I1
sS'almost'
p3250
I4
sS'lush'
p3251
I1
sS'surprisingly'
p3252
I1
sS'helped'
p3253
I1
sS'gothic'
p3254
I1
sS'cross'
p3255
I1
sS'parts'
p3256
I2
sS'fido'
p3257
I1
sS'dickens'
p3258
I1
sS'shuttle'
p3259
I2
sS'party'
p3260
I3
sS'gets'
p3261
I2
sS'planned'
p3262
I1
sS'columbia'
p3263
I1
sS'drink'
p3264
I1
sS'upon'
p3265
I6
sS'impeccable'
p3266
I2
sS'lobby'
p3267
I14
sS'pleasantly'
p3268
I1
sS'center'
p3269
I5
sS'variety'
p3270
I2
sS'well'
p3271
I13
sS'english'
p3272
I1
sS'breaker'
p3273
I1
sS'usual'
p3274
I1
sS'botique'
p3275
I1
sS'barking'
p3276
I1
sS'less'
p3277
I1
sS'proximity'
p3278
I1
sS'rooms'
p3279
I38
sS'roomy'
p3280
I1
sS'headed'
p3281
I2
sS'lake'
p3282
I3
sS'fled'
p3283
I1
sS'add'
p3284
I1
sS'attractive'
p3285
I1
sS'embossed'
p3286
I1
sS'kick'
p3287
I1
sS'resolved'
p3288
I1
sS'ample'
p3289
I2
sS'royalty'
p3290
I1
sS'five'
p3291
I1
sS'know'
p3292
I4
sS'desk'
p3293
I9
sS'immediately'
p3294
I2
sS'pier'
p3295
I1
sS'audibly'
p3296
I1
sS'crisp'
p3297
I1
sS'helpful'
p3298
I11
sS'lost'
p3299
I1
sS'chairs'
p3300
I2
sS'candy'
p3301
I1
sS'sized'
p3302
I6
sS'soft'
p3303
I3
sS'accessible'
p3304
I2
sS'suites'
p3305
I5
sS'mattresses'
p3306
I1
sS'home'
p3307
I4
sS'empire'
p3308
I1
sS'pillows'
p3309
I3
sS'gables'
p3310
I1
sS'leaf'
p3311
I1
sS'lead'
p3312
I1
sS'bedding'
p3313
I2
sS'slide'
p3314
I1
sS'bustling'
p3315
I1
sS'locate'
p3316
I1
sS'reaching'
p3317
I1
sS'although'
p3318
I1
sS'hospitable'
p3319
I1
sS'panel'
p3320
I1
sS'getting'
p3321
I2
sS'freedom'
p3322
I1
sS'louisville'
p3323
I1
sS'pastries'
p3324
I2
sS'equally'
p3325
I1
sS'travelers'
p3326
I1
sS'washington'
p3327
I2
sS'cocoa'
p3328
I1
sS'playoff'
p3329
I1
sS'weather'
p3330
I2
sS'museum'
p3331
I1
sS'spots'
p3332
I3
sS'noticed'
p3333
I1
sS'continental'
p3334
I6
sS'inner'
p3335
I1
sS'buy'
p3336
I2
sS'north'
p3337
I1
sS'bus'
p3338
I1
sS'kalahari'
p3339
I3
sS'landscaping'
p3340
I1
sS'strawberries'
p3341
I1
sS'highest'
p3342
I1
sS'eat'
p3343
I4
sS'hd'
p3344
I2
sS'made'
p3345
I9
sS'places'
p3346
I3
sS'whether'
p3347
I2
sS'wish'
p3348
I2
sS'hassel'
p3349
I1
sS'problem'
p3350
I2
sS'piece'
p3351
I1
sS'minutes'
p3352
I3
sS'reservations'
p3353
I1
sS'bedspreads'
p3354
I1
sS'inn'
p3355
I14
sS'campus'
p3356
I1
sS'balcony'
p3357
I1
sS'compared'
p3358
I1
sS'incredible'
p3359
I2
sS'dressed'
p3360
I1
sS'assorted'
p3361
I1
sS'detail'
p3362
I1
sS'book'
p3363
I4
sS'details'
p3364
I2
sS'granite'
p3365
I1
sS'incredibly'
p3366
I2
sS'conclusion'
p3367
I1
sS'francisco'
p3368
I6
sS'star'
p3369
I3
sS'expereince'
p3370
I1
sS'stay'
p3371
I50
sS'additionally'
p3372
I1
sS'friends'
p3373
I7
sS'ghost'
p3374
I1
sS'lakeland'
p3375
I1
sS'lasted'
p3376
I1
sS'hardboiled'
p3377
I1
sS'gardens'
p3378
I1
ss.